
hello:     file format elf32-littleriscv


Disassembly of section .init:

00000000 <_start>:
   0:	00022197          	auipc	gp,0x22
   4:	e5818193          	add	gp,gp,-424 # 21e58 <__global_pointer$>
   8:	00030117          	auipc	sp,0x30
   c:	ff810113          	add	sp,sp,-8 # 30000 <__freertos_irq_stack_top>
  10:	00000d13          	li	s10,0
  14:	00000d93          	li	s11,0
  18:	0000c517          	auipc	a0,0xc
  1c:	8e450513          	add	a0,a0,-1820 # b8fc <_data_lma>
  20:	00020597          	auipc	a1,0x20
  24:	fe058593          	add	a1,a1,-32 # 20000 <_data>
  28:	85c18613          	add	a2,gp,-1956 # 216b4 <Dhrystones_Per_Second>
  2c:	00c5fc63          	bgeu	a1,a2,44 <_start+0x44>
  30:	00052283          	lw	t0,0(a0)
  34:	0055a023          	sw	t0,0(a1)
  38:	00450513          	add	a0,a0,4
  3c:	00458593          	add	a1,a1,4
  40:	fec5e8e3          	bltu	a1,a2,30 <_start+0x30>
  44:	85c18513          	add	a0,gp,-1956 # 216b4 <Dhrystones_Per_Second>
  48:	00024597          	auipc	a1,0x24
  4c:	eb858593          	add	a1,a1,-328 # 23f00 <_end>
  50:	00b57863          	bgeu	a0,a1,60 <_start+0x60>
  54:	00052023          	sw	zero,0(a0)
  58:	00450513          	add	a0,a0,4
  5c:	feb56ce3          	bltu	a0,a1,54 <_start+0x54>
  60:	00200d13          	li	s10,2
  64:	00100d93          	li	s11,1
  68:	10002537          	lui	a0,0x10002
  6c:	ff250513          	add	a0,a0,-14 # 10001ff2 <__freertos_irq_stack_top+0xffd1ff2>
  70:	00200593          	li	a1,2
  74:	00b50023          	sb	a1,0(a0)
  78:	020000ef          	jal	98 <main>
  7c:	00100d13          	li	s10,1
  80:	00f00d93          	li	s11,15

00000084 <finish1>:
  84:	10002737          	lui	a4,0x10002
  88:	ff070713          	add	a4,a4,-16 # 10001ff0 <__freertos_irq_stack_top+0xffd1ff0>
  8c:	00200793          	li	a5,2
  90:	00f70023          	sb	a5,0(a4)

00000094 <loop>:
  94:	0000006f          	j	94 <loop>

Disassembly of section .text:

00000098 <main>:
      98:	f6010113          	add	sp,sp,-160
      9c:	03000513          	li	a0,48
      a0:	08112e23          	sw	ra,156(sp)
      a4:	08812c23          	sw	s0,152(sp)
      a8:	08912a23          	sw	s1,148(sp)
      ac:	09212823          	sw	s2,144(sp)
      b0:	09312623          	sw	s3,140(sp)
      b4:	09612023          	sw	s6,128(sp)
      b8:	09412423          	sw	s4,136(sp)
      bc:	09512223          	sw	s5,132(sp)
      c0:	07712e23          	sw	s7,124(sp)
      c4:	07812c23          	sw	s8,120(sp)
      c8:	07912a23          	sw	s9,116(sp)
      cc:	07a12823          	sw	s10,112(sp)
      d0:	07b12623          	sw	s11,108(sp)
      d4:	1ed010ef          	jal	1ac0 <malloc>
      d8:	00050413          	mv	s0,a0
      dc:	88a1a423          	sw	a0,-1912(gp) # 216e0 <Next_Ptr_Glob>
      e0:	03000513          	li	a0,48
      e4:	1dd010ef          	jal	1ac0 <malloc>
      e8:	00200793          	li	a5,2
      ec:	02800293          	li	t0,40
      f0:	000205b7          	lui	a1,0x20
      f4:	00f52423          	sw	a5,8(a0)
      f8:	00552623          	sw	t0,12(a0)
      fc:	00852023          	sw	s0,0(a0)
     100:	88a1a623          	sw	a0,-1908(gp) # 216e4 <Ptr_Glob>
     104:	00052223          	sw	zero,4(a0)
     108:	05858593          	add	a1,a1,88 # 20058 <_data+0x58>
     10c:	01050513          	add	a0,a0,16
     110:	155030ef          	jal	3a64 <strcpy>
     114:	00020337          	lui	t1,0x20
     118:	07830593          	add	a1,t1,120 # 20078 <_data+0x78>
     11c:	02010513          	add	a0,sp,32
     120:	145030ef          	jal	3a64 <strcpy>
     124:	00020437          	lui	s0,0x20
     128:	00021b37          	lui	s6,0x21
     12c:	7c8b0393          	add	t2,s6,1992 # 217c8 <Arr_2_Glob>
     130:	00a00713          	li	a4,10
     134:	5c040513          	add	a0,s0,1472 # 205c0 <_data+0x5c0>
     138:	64e3ae23          	sw	a4,1628(t2)
     13c:	035000ef          	jal	970 <ee_printf>
     140:	00020537          	lui	a0,0x20
     144:	09850513          	add	a0,a0,152 # 20098 <_data+0x98>
     148:	029000ef          	jal	970 <ee_printf>
     14c:	5c040513          	add	a0,s0,1472
     150:	021000ef          	jal	970 <ee_printf>
     154:	8781a603          	lw	a2,-1928(gp) # 216d0 <Reg>
     158:	4c060e63          	beqz	a2,634 <main+0x59c>
     15c:	000206b7          	lui	a3,0x20
     160:	0c868513          	add	a0,a3,200 # 200c8 <_data+0xc8>
     164:	00d000ef          	jal	970 <ee_printf>
     168:	5c040513          	add	a0,s0,1472
     16c:	005000ef          	jal	970 <ee_printf>
     170:	00020837          	lui	a6,0x20
     174:	12480513          	add	a0,a6,292 # 20124 <_data+0x124>
     178:	7f8000ef          	jal	970 <ee_printf>
     17c:	5c040513          	add	a0,s0,1472
     180:	7f0000ef          	jal	970 <ee_printf>
     184:	000208b7          	lui	a7,0x20
     188:	00a00593          	li	a1,10
     18c:	15c88513          	add	a0,a7,348 # 2015c <_data+0x15c>
     190:	7e0000ef          	jal	970 <ee_printf>
     194:	00000513          	li	a0,0
     198:	1b5030ef          	jal	3b4c <time>
     19c:	34302a73          	csrr	s4,mtval
     1a0:	8741aa23          	sw	s4,-1932(gp) # 216cc <Begin_Time>
     1a4:	34402af3          	csrr	s5,mip
     1a8:	8751a823          	sw	s5,-1936(gp) # 216c8 <Begin_Inst>
     1ac:	00100a13          	li	s4,1
     1b0:	32c010ef          	jal	14dc <Proc_5>
     1b4:	304010ef          	jal	14b8 <Proc_4>
     1b8:	00020db7          	lui	s11,0x20
     1bc:	00200c93          	li	s9,2
     1c0:	18cd8593          	add	a1,s11,396 # 2018c <_data+0x18c>
     1c4:	04010513          	add	a0,sp,64
     1c8:	01912a23          	sw	s9,20(sp)
     1cc:	099030ef          	jal	3a64 <strcpy>
     1d0:	00100e13          	li	t3,1
     1d4:	04010593          	add	a1,sp,64
     1d8:	02010513          	add	a0,sp,32
     1dc:	01c12e23          	sw	t3,28(sp)
     1e0:	3fc010ef          	jal	15dc <Func_2>
     1e4:	00153e93          	seqz	t4,a0
     1e8:	89d1a023          	sw	t4,-1920(gp) # 216d8 <Bool_Glob>
     1ec:	00200c93          	li	s9,2
     1f0:	01412483          	lw	s1,20(sp)
     1f4:	449cd663          	bge	s9,s1,640 <main+0x5a8>
     1f8:	01812683          	lw	a3,24(sp)
     1fc:	7c8b0593          	add	a1,s6,1992
     200:	00048613          	mv	a2,s1
     204:	8a818513          	add	a0,gp,-1880 # 21700 <Arr_1_Glob>
     208:	344010ef          	jal	154c <Proc_8>
     20c:	88c1a503          	lw	a0,-1908(gp) # 216e4 <Ptr_Glob>
     210:	04100d93          	li	s11,65
     214:	1e8010ef          	jal	13fc <Proc_1>
     218:	00300593          	li	a1,3
     21c:	87c1cf03          	lbu	t5,-1924(gp) # 216d4 <Ch_2_Glob>
     220:	45bf7663          	bgeu	t5,s11,66c <main+0x5d4>
     224:	00048513          	mv	a0,s1
     228:	63c010ef          	jal	1864 <__mulsi3>
     22c:	01812583          	lw	a1,24(sp)
     230:	00a12623          	sw	a0,12(sp)
     234:	001a0a13          	add	s4,s4,1
     238:	00b12423          	sw	a1,8(sp)
     23c:	64c010ef          	jal	1888 <__divsi3>
     240:	00a12a23          	sw	a0,20(sp)
     244:	00050493          	mv	s1,a0
     248:	01410513          	add	a0,sp,20
     24c:	168010ef          	jal	13b4 <Proc_2>
     250:	00b00f93          	li	t6,11
     254:	f5fa1ee3          	bne	s4,t6,1b0 <main+0x118>
     258:	00000513          	li	a0,0
     25c:	0f1030ef          	jal	3b4c <time>
     260:	34302b73          	csrr	s6,mtval
     264:	8761a623          	sw	s6,-1940(gp) # 216c4 <End_Time>
     268:	344027f3          	csrr	a5,mip
     26c:	000202b7          	lui	t0,0x20
     270:	1cc28513          	add	a0,t0,460 # 201cc <_data+0x1cc>
     274:	86f1a423          	sw	a5,-1944(gp) # 216c0 <End_Inst>
     278:	6f8000ef          	jal	970 <ee_printf>
     27c:	5c040513          	add	a0,s0,1472
     280:	6f0000ef          	jal	970 <ee_printf>
     284:	00020337          	lui	t1,0x20
     288:	1dc30513          	add	a0,t1,476 # 201dc <_data+0x1dc>
     28c:	6e4000ef          	jal	970 <ee_printf>
     290:	5c040513          	add	a0,s0,1472
     294:	6dc000ef          	jal	970 <ee_printf>
     298:	8841a583          	lw	a1,-1916(gp) # 216dc <Int_Glob>
     29c:	00020737          	lui	a4,0x20
     2a0:	21470513          	add	a0,a4,532 # 20214 <_data+0x214>
     2a4:	6cc000ef          	jal	970 <ee_printf>
     2a8:	00020a37          	lui	s4,0x20
     2ac:	00500593          	li	a1,5
     2b0:	230a0513          	add	a0,s4,560 # 20230 <_data+0x230>
     2b4:	6bc000ef          	jal	970 <ee_printf>
     2b8:	8801a583          	lw	a1,-1920(gp) # 216d8 <Bool_Glob>
     2bc:	00020d37          	lui	s10,0x20
     2c0:	24cd0513          	add	a0,s10,588 # 2024c <_data+0x24c>
     2c4:	6ac000ef          	jal	970 <ee_printf>
     2c8:	00100593          	li	a1,1
     2cc:	230a0513          	add	a0,s4,560
     2d0:	6a0000ef          	jal	970 <ee_printf>
     2d4:	87d1c583          	lbu	a1,-1923(gp) # 216d5 <Ch_1_Glob>
     2d8:	00020637          	lui	a2,0x20
     2dc:	26860513          	add	a0,a2,616 # 20268 <_data+0x268>
     2e0:	690000ef          	jal	970 <ee_printf>
     2e4:	00020d37          	lui	s10,0x20
     2e8:	04100593          	li	a1,65
     2ec:	284d0513          	add	a0,s10,644 # 20284 <_data+0x284>
     2f0:	680000ef          	jal	970 <ee_printf>
     2f4:	87c1c583          	lbu	a1,-1924(gp) # 216d4 <Ch_2_Glob>
     2f8:	000206b7          	lui	a3,0x20
     2fc:	2a068513          	add	a0,a3,672 # 202a0 <_data+0x2a0>
     300:	670000ef          	jal	970 <ee_printf>
     304:	04200593          	li	a1,66
     308:	284d0513          	add	a0,s10,644
     30c:	664000ef          	jal	970 <ee_printf>
     310:	8a818813          	add	a6,gp,-1880 # 21700 <Arr_1_Glob>
     314:	02082583          	lw	a1,32(a6)
     318:	000208b7          	lui	a7,0x20
     31c:	2bc88513          	add	a0,a7,700 # 202bc <_data+0x2bc>
     320:	650000ef          	jal	970 <ee_printf>
     324:	00700593          	li	a1,7
     328:	230a0513          	add	a0,s4,560
     32c:	00021ab7          	lui	s5,0x21
     330:	640000ef          	jal	970 <ee_printf>
     334:	7c8a8c93          	add	s9,s5,1992 # 217c8 <Arr_2_Glob>
     338:	65cca583          	lw	a1,1628(s9)
     33c:	00020e37          	lui	t3,0x20
     340:	2d8e0513          	add	a0,t3,728 # 202d8 <_data+0x2d8>
     344:	62c000ef          	jal	970 <ee_printf>
     348:	00020eb7          	lui	t4,0x20
     34c:	2f4e8513          	add	a0,t4,756 # 202f4 <_data+0x2f4>
     350:	620000ef          	jal	970 <ee_printf>
     354:	00020f37          	lui	t5,0x20
     358:	320f0513          	add	a0,t5,800 # 20320 <_data+0x320>
     35c:	614000ef          	jal	970 <ee_printf>
     360:	88c1a583          	lw	a1,-1908(gp) # 216e4 <Ptr_Glob>
     364:	00020fb7          	lui	t6,0x20
     368:	32cf8513          	add	a0,t6,812 # 2032c <_data+0x32c>
     36c:	0005a583          	lw	a1,0(a1)
     370:	00020d37          	lui	s10,0x20
     374:	00020cb7          	lui	s9,0x20
     378:	5f8000ef          	jal	970 <ee_printf>
     37c:	000207b7          	lui	a5,0x20
     380:	34878513          	add	a0,a5,840 # 20348 <_data+0x348>
     384:	5ec000ef          	jal	970 <ee_printf>
     388:	88c1a283          	lw	t0,-1908(gp) # 216e4 <Ptr_Glob>
     38c:	00020337          	lui	t1,0x20
     390:	37c30513          	add	a0,t1,892 # 2037c <_data+0x37c>
     394:	0042a583          	lw	a1,4(t0)
     398:	00020ab7          	lui	s5,0x20
     39c:	5d4000ef          	jal	970 <ee_printf>
     3a0:	00000593          	li	a1,0
     3a4:	230a0513          	add	a0,s4,560
     3a8:	5c8000ef          	jal	970 <ee_printf>
     3ac:	88c1a383          	lw	t2,-1908(gp) # 216e4 <Ptr_Glob>
     3b0:	398d0513          	add	a0,s10,920 # 20398 <_data+0x398>
     3b4:	0083a583          	lw	a1,8(t2)
     3b8:	5b8000ef          	jal	970 <ee_printf>
     3bc:	00200593          	li	a1,2
     3c0:	230a0513          	add	a0,s4,560
     3c4:	5ac000ef          	jal	970 <ee_printf>
     3c8:	88c1a703          	lw	a4,-1908(gp) # 216e4 <Ptr_Glob>
     3cc:	3b4c8513          	add	a0,s9,948 # 203b4 <_data+0x3b4>
     3d0:	00c72583          	lw	a1,12(a4)
     3d4:	59c000ef          	jal	970 <ee_printf>
     3d8:	01100593          	li	a1,17
     3dc:	230a0513          	add	a0,s4,560
     3e0:	590000ef          	jal	970 <ee_printf>
     3e4:	88c1a903          	lw	s2,-1908(gp) # 216e4 <Ptr_Glob>
     3e8:	3d0a8513          	add	a0,s5,976 # 203d0 <_data+0x3d0>
     3ec:	01090593          	add	a1,s2,16
     3f0:	580000ef          	jal	970 <ee_printf>
     3f4:	00020937          	lui	s2,0x20
     3f8:	3ec90513          	add	a0,s2,1004 # 203ec <_data+0x3ec>
     3fc:	574000ef          	jal	970 <ee_printf>
     400:	00020537          	lui	a0,0x20
     404:	42450513          	add	a0,a0,1060 # 20424 <_data+0x424>
     408:	568000ef          	jal	970 <ee_printf>
     40c:	8881a603          	lw	a2,-1912(gp) # 216e0 <Next_Ptr_Glob>
     410:	000206b7          	lui	a3,0x20
     414:	32c68513          	add	a0,a3,812 # 2032c <_data+0x32c>
     418:	00062583          	lw	a1,0(a2)
     41c:	554000ef          	jal	970 <ee_printf>
     420:	00020837          	lui	a6,0x20
     424:	43880513          	add	a0,a6,1080 # 20438 <_data+0x438>
     428:	548000ef          	jal	970 <ee_printf>
     42c:	8881a883          	lw	a7,-1912(gp) # 216e0 <Next_Ptr_Glob>
     430:	00020e37          	lui	t3,0x20
     434:	37ce0513          	add	a0,t3,892 # 2037c <_data+0x37c>
     438:	0048a583          	lw	a1,4(a7)
     43c:	534000ef          	jal	970 <ee_printf>
     440:	00000593          	li	a1,0
     444:	230a0513          	add	a0,s4,560
     448:	528000ef          	jal	970 <ee_printf>
     44c:	8881ae83          	lw	t4,-1912(gp) # 216e0 <Next_Ptr_Glob>
     450:	398d0513          	add	a0,s10,920
     454:	00020d37          	lui	s10,0x20
     458:	008ea583          	lw	a1,8(t4)
     45c:	514000ef          	jal	970 <ee_printf>
     460:	00100593          	li	a1,1
     464:	230a0513          	add	a0,s4,560
     468:	508000ef          	jal	970 <ee_printf>
     46c:	8881af03          	lw	t5,-1912(gp) # 216e0 <Next_Ptr_Glob>
     470:	3b4c8513          	add	a0,s9,948
     474:	00020cb7          	lui	s9,0x20
     478:	00cf2583          	lw	a1,12(t5)
     47c:	4f4000ef          	jal	970 <ee_printf>
     480:	01200593          	li	a1,18
     484:	230a0513          	add	a0,s4,560
     488:	4e8000ef          	jal	970 <ee_printf>
     48c:	8881a983          	lw	s3,-1912(gp) # 216e0 <Next_Ptr_Glob>
     490:	3d0a8513          	add	a0,s5,976
     494:	00020ab7          	lui	s5,0x20
     498:	01098593          	add	a1,s3,16
     49c:	4d4000ef          	jal	970 <ee_printf>
     4a0:	3ec90513          	add	a0,s2,1004
     4a4:	4cc000ef          	jal	970 <ee_printf>
     4a8:	01412583          	lw	a1,20(sp)
     4ac:	00020fb7          	lui	t6,0x20
     4b0:	478f8513          	add	a0,t6,1144 # 20478 <_data+0x478>
     4b4:	4bc000ef          	jal	970 <ee_printf>
     4b8:	00500593          	li	a1,5
     4bc:	230a0513          	add	a0,s4,560
     4c0:	4b0000ef          	jal	970 <ee_printf>
     4c4:	00812783          	lw	a5,8(sp)
     4c8:	00c12583          	lw	a1,12(sp)
     4cc:	00020937          	lui	s2,0x20
     4d0:	40f582b3          	sub	t0,a1,a5
     4d4:	00329313          	sll	t1,t0,0x3
     4d8:	405303b3          	sub	t2,t1,t0
     4dc:	409385b3          	sub	a1,t2,s1
     4e0:	000204b7          	lui	s1,0x20
     4e4:	49448513          	add	a0,s1,1172 # 20494 <_data+0x494>
     4e8:	488000ef          	jal	970 <ee_printf>
     4ec:	00d00593          	li	a1,13
     4f0:	230a0513          	add	a0,s4,560
     4f4:	47c000ef          	jal	970 <ee_printf>
     4f8:	01812583          	lw	a1,24(sp)
     4fc:	4b0d0513          	add	a0,s10,1200 # 204b0 <_data+0x4b0>
     500:	470000ef          	jal	970 <ee_printf>
     504:	00700593          	li	a1,7
     508:	230a0513          	add	a0,s4,560
     50c:	464000ef          	jal	970 <ee_printf>
     510:	01c12583          	lw	a1,28(sp)
     514:	00020737          	lui	a4,0x20
     518:	4cc70513          	add	a0,a4,1228 # 204cc <_data+0x4cc>
     51c:	454000ef          	jal	970 <ee_printf>
     520:	00100593          	li	a1,1
     524:	230a0513          	add	a0,s4,560
     528:	448000ef          	jal	970 <ee_printf>
     52c:	00020a37          	lui	s4,0x20
     530:	02010593          	add	a1,sp,32
     534:	4e8a0513          	add	a0,s4,1256 # 204e8 <_data+0x4e8>
     538:	438000ef          	jal	970 <ee_printf>
     53c:	504c8513          	add	a0,s9,1284 # 20504 <_data+0x504>
     540:	430000ef          	jal	970 <ee_printf>
     544:	04010593          	add	a1,sp,64
     548:	53ca8513          	add	a0,s5,1340 # 2053c <_data+0x53c>
     54c:	424000ef          	jal	970 <ee_printf>
     550:	55890513          	add	a0,s2,1368 # 20558 <_data+0x558>
     554:	41c000ef          	jal	970 <ee_printf>
     558:	5c040513          	add	a0,s0,1472
     55c:	414000ef          	jal	970 <ee_printf>
     560:	86c1ad83          	lw	s11,-1940(gp) # 216c4 <End_Time>
     564:	8741ac03          	lw	s8,-1932(gp) # 216cc <Begin_Time>
     568:	8581a707          	flw	fa4,-1960(gp) # 216b0 <__malloc_trim_threshold+0x50>
     56c:	418d8533          	sub	a0,s11,s8
     570:	d00577d3          	fcvt.s.w	fa5,a0
     574:	000206b7          	lui	a3,0x20
     578:	86a1a223          	sw	a0,-1948(gp) # 216bc <User_Time>
     57c:	18e7f053          	fdiv.s	ft0,fa5,fa4
     580:	59068513          	add	a0,a3,1424 # 20590 <_data+0x590>
     584:	00a00593          	li	a1,10
     588:	00020d37          	lui	s10,0x20
     58c:	8601a027          	fsw	ft0,-1952(gp) # 216b8 <Microseconds>
     590:	3e0000ef          	jal	970 <ee_printf>
     594:	8641a583          	lw	a1,-1948(gp) # 216bc <User_Time>
     598:	5bcd0513          	add	a0,s10,1468 # 205bc <_data+0x5bc>
     59c:	3d4000ef          	jal	970 <ee_printf>
     5a0:	00020837          	lui	a6,0x20
     5a4:	5c480513          	add	a0,a6,1476 # 205c4 <_data+0x5c4>
     5a8:	00a00593          	li	a1,10
     5ac:	3c4000ef          	jal	970 <ee_printf>
     5b0:	8681ab03          	lw	s6,-1944(gp) # 216c0 <End_Inst>
     5b4:	8701ab83          	lw	s7,-1936(gp) # 216c8 <Begin_Inst>
     5b8:	5bcd0513          	add	a0,s10,1468
     5bc:	417b05b3          	sub	a1,s6,s7
     5c0:	3b0000ef          	jal	970 <ee_printf>
     5c4:	000208b7          	lui	a7,0x20
     5c8:	5f888513          	add	a0,a7,1528 # 205f8 <_data+0x5f8>
     5cc:	3a4000ef          	jal	970 <ee_printf>
     5d0:	8601a507          	flw	fa0,-1952(gp) # 216b8 <Microseconds>
     5d4:	17c010ef          	jal	1750 <__extendsfdf2>
     5d8:	00020e37          	lui	t3,0x20
     5dc:	00050613          	mv	a2,a0
     5e0:	00058693          	mv	a3,a1
     5e4:	610e0513          	add	a0,t3,1552 # 20610 <_data+0x610>
     5e8:	388000ef          	jal	970 <ee_printf>
     5ec:	5c040513          	add	a0,s0,1472
     5f0:	380000ef          	jal	970 <ee_printf>
     5f4:	09c12083          	lw	ra,156(sp)
     5f8:	09812403          	lw	s0,152(sp)
     5fc:	09412483          	lw	s1,148(sp)
     600:	09012903          	lw	s2,144(sp)
     604:	08c12983          	lw	s3,140(sp)
     608:	08812a03          	lw	s4,136(sp)
     60c:	08412a83          	lw	s5,132(sp)
     610:	08012b03          	lw	s6,128(sp)
     614:	07c12b83          	lw	s7,124(sp)
     618:	07812c03          	lw	s8,120(sp)
     61c:	07412c83          	lw	s9,116(sp)
     620:	07012d03          	lw	s10,112(sp)
     624:	06c12d83          	lw	s11,108(sp)
     628:	00000513          	li	a0,0
     62c:	0a010113          	add	sp,sp,160
     630:	00008067          	ret
     634:	000200b7          	lui	ra,0x20
     638:	0f408513          	add	a0,ra,244 # 200f4 <_data+0xf4>
     63c:	b29ff06f          	j	164 <main+0xcc>
     640:	00249793          	sll	a5,s1,0x2
     644:	009782b3          	add	t0,a5,s1
     648:	ffd28313          	add	t1,t0,-3
     64c:	01810613          	add	a2,sp,24
     650:	00300593          	li	a1,3
     654:	00048513          	mv	a0,s1
     658:	00612c23          	sw	t1,24(sp)
     65c:	6e1000ef          	jal	153c <Proc_7>
     660:	00148393          	add	t2,s1,1
     664:	00712a23          	sw	t2,20(sp)
     668:	b89ff06f          	j	1f0 <main+0x158>
     66c:	00b12423          	sw	a1,8(sp)
     670:	000d8513          	mv	a0,s11
     674:	04300593          	li	a1,67
     678:	745000ef          	jal	15bc <Func_1>
     67c:	01c12e83          	lw	t4,28(sp)
     680:	00812583          	lw	a1,8(sp)
     684:	03d51463          	bne	a0,t4,6ac <main+0x614>
     688:	01c10593          	add	a1,sp,28
     68c:	00000513          	li	a0,0
     690:	65d000ef          	jal	14ec <Proc_6>
     694:	00020f37          	lui	t5,0x20
     698:	1acf0593          	add	a1,t5,428 # 201ac <_data+0x1ac>
     69c:	04010513          	add	a0,sp,64
     6a0:	3c4030ef          	jal	3a64 <strcpy>
     6a4:	8941a223          	sw	s4,-1916(gp) # 216dc <Int_Glob>
     6a8:	000a0593          	mv	a1,s4
     6ac:	001d8093          	add	ra,s11,1
     6b0:	0ff0fd93          	zext.b	s11,ra
     6b4:	b69ff06f          	j	21c <main+0x184>

000006b8 <number>:
     6b8:	f6010113          	add	sp,sp,-160
     6bc:	08812c23          	sw	s0,152(sp)
     6c0:	08912a23          	sw	s1,148(sp)
     6c4:	09212823          	sw	s2,144(sp)
     6c8:	09412423          	sw	s4,136(sp)
     6cc:	07b12623          	sw	s11,108(sp)
     6d0:	00078913          	mv	s2,a5
     6d4:	08112e23          	sw	ra,156(sp)
     6d8:	09312623          	sw	s3,140(sp)
     6dc:	09512223          	sw	s5,132(sp)
     6e0:	09612023          	sw	s6,128(sp)
     6e4:	07712e23          	sw	s7,124(sp)
     6e8:	07812c23          	sw	s8,120(sp)
     6ec:	07912a23          	sw	s9,116(sp)
     6f0:	07a12823          	sw	s10,112(sp)
     6f4:	0407f793          	and	a5,a5,64
     6f8:	00050493          	mv	s1,a0
     6fc:	00060a13          	mv	s4,a2
     700:	00058513          	mv	a0,a1
     704:	00068413          	mv	s0,a3
     708:	00070d93          	mv	s11,a4
     70c:	08078663          	beqz	a5,798 <number+0xe0>
     710:	000200b7          	lui	ra,0x20
     714:	02808a93          	add	s5,ra,40 # 20028 <_data+0x28>
     718:	01097b93          	and	s7,s2,16
     71c:	000b8463          	beqz	s7,724 <number+0x6c>
     720:	ffe97913          	and	s2,s2,-2
     724:	03000713          	li	a4,48
     728:	00197293          	and	t0,s2,1
     72c:	00e12623          	sw	a4,12(sp)
     730:	00029663          	bnez	t0,73c <number+0x84>
     734:	02000313          	li	t1,32
     738:	00612623          	sw	t1,12(sp)
     73c:	00297393          	and	t2,s2,2
     740:	02097b13          	and	s6,s2,32
     744:	1a038c63          	beqz	t2,8fc <number+0x244>
     748:	04055e63          	bgez	a0,7a4 <number+0xec>
     74c:	40a00533          	neg	a0,a0
     750:	fff40413          	add	s0,s0,-1
     754:	02d00d13          	li	s10,45
     758:	060b1063          	bnez	s6,7b8 <number+0x100>
     75c:	01c10c93          	add	s9,sp,28
     760:	00000993          	li	s3,0
     764:	000a0593          	mv	a1,s4
     768:	00050c13          	mv	s8,a0
     76c:	16c010ef          	jal	18d8 <__umodsi3>
     770:	00aa8533          	add	a0,s5,a0
     774:	00054883          	lbu	a7,0(a0)
     778:	000a0593          	mv	a1,s4
     77c:	000c0513          	mv	a0,s8
     780:	011c8023          	sb	a7,0(s9)
     784:	00198993          	add	s3,s3,1
     788:	108010ef          	jal	1890 <__hidden___udivsi3>
     78c:	001c8c93          	add	s9,s9,1
     790:	fd4c7ae3          	bgeu	s8,s4,764 <number+0xac>
     794:	0400006f          	j	7d4 <number+0x11c>
     798:	00020ab7          	lui	s5,0x20
     79c:	000a8a93          	mv	s5,s5
     7a0:	f79ff06f          	j	718 <number+0x60>
     7a4:	00497593          	and	a1,s2,4
     7a8:	12058e63          	beqz	a1,8e4 <number+0x22c>
     7ac:	fff40413          	add	s0,s0,-1
     7b0:	02b00d13          	li	s10,43
     7b4:	000b0863          	beqz	s6,7c4 <number+0x10c>
     7b8:	01000693          	li	a3,16
     7bc:	14da1463          	bne	s4,a3,904 <number+0x24c>
     7c0:	ffe40413          	add	s0,s0,-2
     7c4:	f8051ce3          	bnez	a0,75c <number+0xa4>
     7c8:	03000993          	li	s3,48
     7cc:	01310e23          	sb	s3,28(sp)
     7d0:	00100993          	li	s3,1
     7d4:	00098a93          	mv	s5,s3
     7d8:	01b9d463          	bge	s3,s11,7e0 <number+0x128>
     7dc:	000d8a93          	mv	s5,s11
     7e0:	01197e13          	and	t3,s2,17
     7e4:	41540433          	sub	s0,s0,s5
     7e8:	020e1663          	bnez	t3,814 <number+0x15c>
     7ec:	00040d93          	mv	s11,s0
     7f0:	00045463          	bgez	s0,7f8 <number+0x140>
     7f4:	00000d93          	li	s11,0
     7f8:	00048513          	mv	a0,s1
     7fc:	000d8613          	mv	a2,s11
     800:	02000593          	li	a1,32
     804:	525010ef          	jal	2528 <memset>
     808:	fff40e93          	add	t4,s0,-1
     80c:	01b484b3          	add	s1,s1,s11
     810:	41be8433          	sub	s0,t4,s11
     814:	000d0663          	beqz	s10,820 <number+0x168>
     818:	01a48023          	sb	s10,0(s1)
     81c:	00148493          	add	s1,s1,1
     820:	000b0c63          	beqz	s6,838 <number+0x180>
     824:	00800f13          	li	t5,8
     828:	0fea1663          	bne	s4,t5,914 <number+0x25c>
     82c:	03000093          	li	ra,48
     830:	00148023          	sb	ra,0(s1)
     834:	00148493          	add	s1,s1,1
     838:	020b9663          	bnez	s7,864 <number+0x1ac>
     83c:	00040b93          	mv	s7,s0
     840:	00045463          	bgez	s0,848 <number+0x190>
     844:	00000b93          	li	s7,0
     848:	00c12583          	lw	a1,12(sp)
     84c:	00048513          	mv	a0,s1
     850:	000b8613          	mv	a2,s7
     854:	fff40913          	add	s2,s0,-1
     858:	4d1010ef          	jal	2528 <memset>
     85c:	017484b3          	add	s1,s1,s7
     860:	41790433          	sub	s0,s2,s7
     864:	413a8b33          	sub	s6,s5,s3
     868:	000b0613          	mv	a2,s6
     86c:	03000593          	li	a1,48
     870:	00048513          	mv	a0,s1
     874:	4b5010ef          	jal	2528 <memset>
     878:	01648333          	add	t1,s1,s6
     87c:	fff00293          	li	t0,-1
     880:	fff98993          	add	s3,s3,-1
     884:	0a599863          	bne	s3,t0,934 <number+0x27c>
     888:	015484b3          	add	s1,s1,s5
     88c:	00045463          	bgez	s0,894 <number+0x1dc>
     890:	00000413          	li	s0,0
     894:	00040613          	mv	a2,s0
     898:	00048513          	mv	a0,s1
     89c:	02000593          	li	a1,32
     8a0:	489010ef          	jal	2528 <memset>
     8a4:	00848533          	add	a0,s1,s0
     8a8:	09c12083          	lw	ra,156(sp)
     8ac:	09812403          	lw	s0,152(sp)
     8b0:	09412483          	lw	s1,148(sp)
     8b4:	09012903          	lw	s2,144(sp)
     8b8:	08c12983          	lw	s3,140(sp)
     8bc:	08812a03          	lw	s4,136(sp)
     8c0:	08412a83          	lw	s5,132(sp)
     8c4:	08012b03          	lw	s6,128(sp)
     8c8:	07c12b83          	lw	s7,124(sp)
     8cc:	07812c03          	lw	s8,120(sp)
     8d0:	07412c83          	lw	s9,116(sp)
     8d4:	07012d03          	lw	s10,112(sp)
     8d8:	06c12d83          	lw	s11,108(sp)
     8dc:	0a010113          	add	sp,sp,160
     8e0:	00008067          	ret
     8e4:	00897613          	and	a2,s2,8
     8e8:	00000d13          	li	s10,0
     8ec:	ec0604e3          	beqz	a2,7b4 <number+0xfc>
     8f0:	fff40413          	add	s0,s0,-1
     8f4:	02000d13          	li	s10,32
     8f8:	ebdff06f          	j	7b4 <number+0xfc>
     8fc:	00000d13          	li	s10,0
     900:	eb5ff06f          	j	7b4 <number+0xfc>
     904:	00800813          	li	a6,8
     908:	eb0a1ee3          	bne	s4,a6,7c4 <number+0x10c>
     90c:	fff40413          	add	s0,s0,-1
     910:	eb5ff06f          	j	7c4 <number+0x10c>
     914:	01000f93          	li	t6,16
     918:	f3fa10e3          	bne	s4,t6,838 <number+0x180>
     91c:	03000a13          	li	s4,48
     920:	07800793          	li	a5,120
     924:	01448023          	sb	s4,0(s1)
     928:	00f480a3          	sb	a5,1(s1)
     92c:	00248493          	add	s1,s1,2
     930:	f09ff06f          	j	838 <number+0x180>
     934:	01c10713          	add	a4,sp,28
     938:	013703b3          	add	t2,a4,s3
     93c:	0003cd03          	lbu	s10,0(t2)
     940:	00130313          	add	t1,t1,1
     944:	ffa30fa3          	sb	s10,-1(t1)
     948:	f39ff06f          	j	880 <number+0x1c8>

0000094c <set_print_flag>:
     94c:	100027b7          	lui	a5,0x10002
     950:	ff078693          	add	a3,a5,-16 # 10001ff0 <__freertos_irq_stack_top+0xffd1ff0>
     954:	88d1a823          	sw	a3,-1904(gp) # 216e8 <hw_pointer>
     958:	00100293          	li	t0,1
     95c:	fe578823          	sb	t0,-16(a5)
     960:	00008067          	ret

00000964 <uart_send_char>:
     964:	8901a283          	lw	t0,-1904(gp) # 216e8 <hw_pointer>
     968:	00a28023          	sb	a0,0(t0)
     96c:	00008067          	ret

00000970 <ee_printf>:
     970:	ae010113          	add	sp,sp,-1312
     974:	4f312623          	sw	s3,1260(sp)
     978:	000209b7          	lui	s3,0x20
     97c:	4e812c23          	sw	s0,1272(sp)
     980:	50f12a23          	sw	a5,1300(sp)
     984:	50410413          	add	s0,sp,1284
     988:	61898793          	add	a5,s3,1560 # 20618 <_data+0x618>
     98c:	4f512223          	sw	s5,1252(sp)
     990:	4db12623          	sw	s11,1228(sp)
     994:	4e112e23          	sw	ra,1276(sp)
     998:	4e912a23          	sw	s1,1268(sp)
     99c:	4f212823          	sw	s2,1264(sp)
     9a0:	4f412423          	sw	s4,1256(sp)
     9a4:	4f612023          	sw	s6,1248(sp)
     9a8:	4d712e23          	sw	s7,1244(sp)
     9ac:	4d812c23          	sw	s8,1240(sp)
     9b0:	4d912a23          	sw	s9,1236(sp)
     9b4:	4da12823          	sw	s10,1232(sp)
     9b8:	50b12223          	sw	a1,1284(sp)
     9bc:	50c12423          	sw	a2,1288(sp)
     9c0:	50d12623          	sw	a3,1292(sp)
     9c4:	50e12823          	sw	a4,1296(sp)
     9c8:	51012c23          	sw	a6,1304(sp)
     9cc:	51112e23          	sw	a7,1308(sp)
     9d0:	00812a23          	sw	s0,20(sp)
     9d4:	0c010d93          	add	s11,sp,192
     9d8:	02000a93          	li	s5,32
     9dc:	00f12423          	sw	a5,8(sp)
     9e0:	00054083          	lbu	ra,0(a0)
     9e4:	06009263          	bnez	ra,a48 <ee_printf+0xd8>
     9e8:	100022b7          	lui	t0,0x10002
     9ec:	000d8023          	sb	zero,0(s11)
     9f0:	ff128313          	add	t1,t0,-15 # 10001ff1 <__freertos_irq_stack_top+0xffd1ff1>
     9f4:	8861a823          	sw	t1,-1904(gp) # 216e8 <hw_pointer>
     9f8:	00000513          	li	a0,0
     9fc:	0c010393          	add	t2,sp,192
     a00:	00a38433          	add	s0,t2,a0
     a04:	00044483          	lbu	s1,0(s0)
     a08:	0e0496e3          	bnez	s1,12f4 <ee_printf+0x984>
     a0c:	4fc12083          	lw	ra,1276(sp)
     a10:	4f812403          	lw	s0,1272(sp)
     a14:	4f412483          	lw	s1,1268(sp)
     a18:	4f012903          	lw	s2,1264(sp)
     a1c:	4ec12983          	lw	s3,1260(sp)
     a20:	4e812a03          	lw	s4,1256(sp)
     a24:	4e412a83          	lw	s5,1252(sp)
     a28:	4e012b03          	lw	s6,1248(sp)
     a2c:	4dc12b83          	lw	s7,1244(sp)
     a30:	4d812c03          	lw	s8,1240(sp)
     a34:	4d412c83          	lw	s9,1236(sp)
     a38:	4d012d03          	lw	s10,1232(sp)
     a3c:	4cc12d83          	lw	s11,1228(sp)
     a40:	52010113          	add	sp,sp,1312
     a44:	00008067          	ret
     a48:	02500593          	li	a1,37
     a4c:	00b08a63          	beq	ra,a1,a60 <ee_printf+0xf0>
     a50:	001d8023          	sb	ra,0(s11)
     a54:	00050493          	mv	s1,a0
     a58:	001d8d93          	add	s11,s11,1
     a5c:	2dc0006f          	j	d38 <ee_printf+0x3c8>
     a60:	00000793          	li	a5,0
     a64:	02b00813          	li	a6,43
     a68:	02300613          	li	a2,35
     a6c:	0380006f          	j	aa4 <ee_printf+0x134>
     a70:	02d00513          	li	a0,45
     a74:	02a88463          	beq	a7,a0,a9c <ee_printf+0x12c>
     a78:	03000913          	li	s2,48
     a7c:	09288c63          	beq	a7,s2,b14 <ee_printf+0x1a4>
     a80:	fd088a13          	add	s4,a7,-48
     a84:	0ffa7b13          	zext.b	s6,s4
     a88:	00900b93          	li	s7,9
     a8c:	036bec63          	bltu	s7,s6,ac4 <ee_printf+0x154>
     a90:	00000993          	li	s3,0
     a94:	00900c13          	li	s8,9
     a98:	09c0006f          	j	b34 <ee_printf+0x1c4>
     a9c:	0107e793          	or	a5,a5,16
     aa0:	00048513          	mv	a0,s1
     aa4:	00154883          	lbu	a7,1(a0)
     aa8:	00150493          	add	s1,a0,1
     aac:	05088863          	beq	a7,a6,afc <ee_printf+0x18c>
     ab0:	fd1860e3          	bltu	a6,a7,a70 <ee_printf+0x100>
     ab4:	05588863          	beq	a7,s5,b04 <ee_printf+0x194>
     ab8:	04c88a63          	beq	a7,a2,b0c <ee_printf+0x19c>
     abc:	02a00093          	li	ra,42
     ac0:	08188463          	beq	a7,ra,b48 <ee_printf+0x1d8>
     ac4:	fff00993          	li	s3,-1
     ac8:	0004c283          	lbu	t0,0(s1)
     acc:	02e00313          	li	t1,46
     ad0:	fff00c93          	li	s9,-1
     ad4:	0c629263          	bne	t0,t1,b98 <ee_printf+0x228>
     ad8:	0014c383          	lbu	t2,1(s1)
     adc:	00900593          	li	a1,9
     ae0:	00148693          	add	a3,s1,1
     ae4:	fd038713          	add	a4,t2,-48
     ae8:	0ff77813          	zext.b	a6,a4
     aec:	0f05ea63          	bltu	a1,a6,be0 <ee_printf+0x270>
     af0:	00000c93          	li	s9,0
     af4:	00900493          	li	s1,9
     af8:	0840006f          	j	b7c <ee_printf+0x20c>
     afc:	0047e793          	or	a5,a5,4
     b00:	fa1ff06f          	j	aa0 <ee_printf+0x130>
     b04:	0087e793          	or	a5,a5,8
     b08:	f99ff06f          	j	aa0 <ee_printf+0x130>
     b0c:	0207e793          	or	a5,a5,32
     b10:	f91ff06f          	j	aa0 <ee_printf+0x130>
     b14:	0017e793          	or	a5,a5,1
     b18:	f89ff06f          	j	aa0 <ee_printf+0x130>
     b1c:	00299e93          	sll	t4,s3,0x2
     b20:	013e8f33          	add	t5,t4,s3
     b24:	001f1f93          	sll	t6,t5,0x1
     b28:	019f89b3          	add	s3,t6,s9
     b2c:	00148493          	add	s1,s1,1
     b30:	fd098993          	add	s3,s3,-48
     b34:	0004cc83          	lbu	s9,0(s1)
     b38:	fd0c8d13          	add	s10,s9,-48
     b3c:	0ffd7e13          	zext.b	t3,s10
     b40:	fdcc7ee3          	bgeu	s8,t3,b1c <ee_printf+0x1ac>
     b44:	f85ff06f          	j	ac8 <ee_printf+0x158>
     b48:	00042983          	lw	s3,0(s0)
     b4c:	00250493          	add	s1,a0,2
     b50:	00440413          	add	s0,s0,4
     b54:	f609dae3          	bgez	s3,ac8 <ee_printf+0x158>
     b58:	413009b3          	neg	s3,s3
     b5c:	0107e793          	or	a5,a5,16
     b60:	f69ff06f          	j	ac8 <ee_printf+0x158>
     b64:	002c9913          	sll	s2,s9,0x2
     b68:	01990cb3          	add	s9,s2,s9
     b6c:	001c9e13          	sll	t3,s9,0x1
     b70:	011e08b3          	add	a7,t3,a7
     b74:	00168693          	add	a3,a3,1
     b78:	fd088c93          	add	s9,a7,-48
     b7c:	0006c883          	lbu	a7,0(a3)
     b80:	fd088513          	add	a0,a7,-48
     b84:	0ff57913          	zext.b	s2,a0
     b88:	fd24fee3          	bgeu	s1,s2,b64 <ee_printf+0x1f4>
     b8c:	000cd463          	bgez	s9,b94 <ee_printf+0x224>
     b90:	00000c93          	li	s9,0
     b94:	00068493          	mv	s1,a3
     b98:	0004ca03          	lbu	s4,0(s1)
     b9c:	04c00b93          	li	s7,76
     ba0:	fff00c13          	li	s8,-1
     ba4:	0dfa7b13          	and	s6,s4,223
     ba8:	017b1663          	bne	s6,s7,bb4 <ee_printf+0x244>
     bac:	000a0c13          	mv	s8,s4
     bb0:	00148493          	add	s1,s1,1
     bb4:	0004cd03          	lbu	s10,0(s1)
     bb8:	04100e13          	li	t3,65
     bbc:	1dcd0863          	beq	s10,t3,d8c <ee_printf+0x41c>
     bc0:	fa8d0e93          	add	t4,s10,-88
     bc4:	0ffeff13          	zext.b	t5,t4
     bc8:	71eae263          	bltu	s5,t5,12cc <ee_printf+0x95c>
     bcc:	00812083          	lw	ra,8(sp)
     bd0:	002f1f93          	sll	t6,t5,0x2
     bd4:	001f82b3          	add	t0,t6,ra
     bd8:	0002a303          	lw	t1,0(t0)
     bdc:	00030067          	jr	t1
     be0:	02a00613          	li	a2,42
     be4:	00c39a63          	bne	t2,a2,bf8 <ee_printf+0x288>
     be8:	00042c83          	lw	s9,0(s0)
     bec:	00248693          	add	a3,s1,2
     bf0:	00440413          	add	s0,s0,4
     bf4:	f99ff06f          	j	b8c <ee_printf+0x21c>
     bf8:	00068493          	mv	s1,a3
     bfc:	00000c93          	li	s9,0
     c00:	f99ff06f          	j	b98 <ee_printf+0x228>
     c04:	00800613          	li	a2,8
     c08:	00042583          	lw	a1,0(s0)
     c0c:	00440b93          	add	s7,s0,4
     c10:	000c8713          	mv	a4,s9
     c14:	00098693          	mv	a3,s3
     c18:	1640006f          	j	d7c <ee_printf+0x40c>
     c1c:	0107f093          	and	ra,a5,16
     c20:	02009e63          	bnez	ra,c5c <ee_printf+0x2ec>
     c24:	fff98b13          	add	s6,s3,-1
     c28:	00000b93          	li	s7,0
     c2c:	01305463          	blez	s3,c34 <ee_printf+0x2c4>
     c30:	000b0b93          	mv	s7,s6
     c34:	02000593          	li	a1,32
     c38:	000d8513          	mv	a0,s11
     c3c:	000b8613          	mv	a2,s7
     c40:	0e9010ef          	jal	2528 <memset>
     c44:	017d8db3          	add	s11,s11,s7
     c48:	00098593          	mv	a1,s3
     c4c:	01304463          	bgtz	s3,c54 <ee_printf+0x2e4>
     c50:	00100593          	li	a1,1
     c54:	40bb03b3          	sub	t2,s6,a1
     c58:	00138993          	add	s3,t2,1
     c5c:	00440b93          	add	s7,s0,4
     c60:	00042403          	lw	s0,0(s0)
     c64:	001d8793          	add	a5,s11,1
     c68:	00000c13          	li	s8,0
     c6c:	008d8023          	sb	s0,0(s11)
     c70:	01305463          	blez	s3,c78 <ee_printf+0x308>
     c74:	fff98c13          	add	s8,s3,-1
     c78:	000c0613          	mv	a2,s8
     c7c:	02000593          	li	a1,32
     c80:	00078513          	mv	a0,a5
     c84:	0a5010ef          	jal	2528 <memset>
     c88:	01850db3          	add	s11,a0,s8
     c8c:	000b8413          	mv	s0,s7
     c90:	0a80006f          	j	d38 <ee_printf+0x3c8>
     c94:	00042b03          	lw	s6,0(s0)
     c98:	00440a13          	add	s4,s0,4
     c9c:	000b1663          	bnez	s6,ca8 <ee_printf+0x338>
     ca0:	00020437          	lui	s0,0x20
     ca4:	05040b13          	add	s6,s0,80 # 20050 <_data+0x50>
     ca8:	000c8593          	mv	a1,s9
     cac:	000b0513          	mv	a0,s6
     cb0:	00f12623          	sw	a5,12(sp)
     cb4:	661020ef          	jal	3b14 <strnlen>
     cb8:	00c12783          	lw	a5,12(sp)
     cbc:	00050b93          	mv	s7,a0
     cc0:	0107f913          	and	s2,a5,16
     cc4:	02091c63          	bnez	s2,cfc <ee_printf+0x38c>
     cc8:	40a98cb3          	sub	s9,s3,a0
     ccc:	00a9c463          	blt	s3,a0,cd4 <ee_printf+0x364>
     cd0:	000c8913          	mv	s2,s9
     cd4:	000d8513          	mv	a0,s11
     cd8:	00090613          	mv	a2,s2
     cdc:	02000593          	li	a1,32
     ce0:	049010ef          	jal	2528 <memset>
     ce4:	012d8db3          	add	s11,s11,s2
     ce8:	fff98393          	add	t2,s3,-1
     cec:	00000713          	li	a4,0
     cf0:	0179c463          	blt	s3,s7,cf8 <ee_printf+0x388>
     cf4:	41900733          	neg	a4,s9
     cf8:	007709b3          	add	s3,a4,t2
     cfc:	00000513          	li	a0,0
     d00:	05754063          	blt	a0,s7,d40 <ee_printf+0x3d0>
     d04:	000b8813          	mv	a6,s7
     d08:	000bd463          	bgez	s7,d10 <ee_printf+0x3a0>
     d0c:	00000813          	li	a6,0
     d10:	010d86b3          	add	a3,s11,a6
     d14:	00000d93          	li	s11,0
     d18:	0179c463          	blt	s3,s7,d20 <ee_printf+0x3b0>
     d1c:	41798db3          	sub	s11,s3,s7
     d20:	000d8613          	mv	a2,s11
     d24:	02000593          	li	a1,32
     d28:	00068513          	mv	a0,a3
     d2c:	7fc010ef          	jal	2528 <memset>
     d30:	01b50db3          	add	s11,a0,s11
     d34:	000a0413          	mv	s0,s4
     d38:	00148513          	add	a0,s1,1
     d3c:	ca5ff06f          	j	9e0 <ee_printf+0x70>
     d40:	00ab05b3          	add	a1,s6,a0
     d44:	0005c603          	lbu	a2,0(a1)
     d48:	00ad88b3          	add	a7,s11,a0
     d4c:	00150513          	add	a0,a0,1
     d50:	00c88023          	sb	a2,0(a7)
     d54:	fadff06f          	j	d00 <ee_printf+0x390>
     d58:	fff00c13          	li	s8,-1
     d5c:	01899663          	bne	s3,s8,d68 <ee_printf+0x3f8>
     d60:	0017e793          	or	a5,a5,1
     d64:	00800993          	li	s3,8
     d68:	00042583          	lw	a1,0(s0)
     d6c:	00440b93          	add	s7,s0,4
     d70:	000c8713          	mv	a4,s9
     d74:	00098693          	mv	a3,s3
     d78:	01000613          	li	a2,16
     d7c:	000d8513          	mv	a0,s11
     d80:	939ff0ef          	jal	6b8 <number>
     d84:	00050d93          	mv	s11,a0
     d88:	f05ff06f          	j	c8c <ee_printf+0x31c>
     d8c:	0407e793          	or	a5,a5,64
     d90:	06c00713          	li	a4,108
     d94:	00042b03          	lw	s6,0(s0)
     d98:	00440413          	add	s0,s0,4
     d9c:	10ec1263          	bne	s8,a4,ea0 <ee_printf+0x530>
     da0:	0407f313          	and	t1,a5,64
     da4:	06030863          	beqz	t1,e14 <ee_printf+0x4a4>
     da8:	000205b7          	lui	a1,0x20
     dac:	02858a13          	add	s4,a1,40 # 20028 <_data+0x28>
     db0:	00000293          	li	t0,0
     db4:	00000593          	li	a1,0
     db8:	00600393          	li	t2,6
     dbc:	03a00b93          	li	s7,58
     dc0:	005b00b3          	add	ra,s6,t0
     dc4:	0000c703          	lbu	a4,0(ra)
     dc8:	4b058893          	add	a7,a1,1200
     dcc:	01010913          	add	s2,sp,16
     dd0:	00475813          	srl	a6,a4,0x4
     dd4:	00f77c13          	and	s8,a4,15
     dd8:	010a06b3          	add	a3,s4,a6
     ddc:	018a0f33          	add	t5,s4,s8
     de0:	0006cc83          	lbu	s9,0(a3)
     de4:	000f4f83          	lbu	t6,0(t5)
     de8:	01288e33          	add	t3,a7,s2
     dec:	bb9e0823          	sb	s9,-1104(t3)
     df0:	bbfe08a3          	sb	t6,-1103(t3)
     df4:	00128293          	add	t0,t0,1
     df8:	00258e93          	add	t4,a1,2
     dfc:	02728263          	beq	t0,t2,e20 <ee_printf+0x4b0>
     e00:	4b0e8093          	add	ra,t4,1200
     e04:	01208733          	add	a4,ra,s2
     e08:	00358593          	add	a1,a1,3
     e0c:	bb770823          	sb	s7,-1104(a4)
     e10:	fb1ff06f          	j	dc0 <ee_printf+0x450>
     e14:	00020d37          	lui	s10,0x20
     e18:	000d0a13          	mv	s4,s10
     e1c:	f95ff06f          	j	db0 <ee_printf+0x440>
     e20:	0107fd13          	and	s10,a5,16
     e24:	040d1063          	bnez	s10,e64 <ee_printf+0x4f4>
     e28:	01000793          	li	a5,16
     e2c:	fef98b13          	add	s6,s3,-17
     e30:	0137d463          	bge	a5,s3,e38 <ee_printf+0x4c8>
     e34:	000b0d13          	mv	s10,s6
     e38:	000d0613          	mv	a2,s10
     e3c:	000d8513          	mv	a0,s11
     e40:	02000593          	li	a1,32
     e44:	6e4010ef          	jal	2528 <memset>
     e48:	01000613          	li	a2,16
     e4c:	01ad8db3          	add	s11,s11,s10
     e50:	00000513          	li	a0,0
     e54:	01365463          	bge	a2,s3,e5c <ee_printf+0x4ec>
     e58:	41600533          	neg	a0,s6
     e5c:	fff98993          	add	s3,s3,-1
     e60:	013509b3          	add	s3,a0,s3
     e64:	000d8513          	mv	a0,s11
     e68:	01100613          	li	a2,17
     e6c:	07010593          	add	a1,sp,112
     e70:	3f8010ef          	jal	2268 <memcpy>
     e74:	01000313          	li	t1,16
     e78:	011d8e93          	add	t4,s11,17
     e7c:	00000d93          	li	s11,0
     e80:	01335463          	bge	t1,s3,e88 <ee_printf+0x518>
     e84:	fef98d93          	add	s11,s3,-17
     e88:	000d8613          	mv	a2,s11
     e8c:	02000593          	li	a1,32
     e90:	000e8513          	mv	a0,t4
     e94:	694010ef          	jal	2528 <memset>
     e98:	01b50db3          	add	s11,a0,s11
     e9c:	e9dff06f          	j	d38 <ee_printf+0x3c8>
     ea0:	00020637          	lui	a2,0x20
     ea4:	00000c93          	li	s9,0
     ea8:	00000c13          	li	s8,0
     eac:	00060913          	mv	s2,a2
     eb0:	019b06b3          	add	a3,s6,s9
     eb4:	0006ca03          	lbu	s4,0(a3)
     eb8:	4b0c0893          	add	a7,s8,1200
     ebc:	01010e13          	add	t3,sp,16
     ec0:	001c0b93          	add	s7,s8,1
     ec4:	01c88d33          	add	s10,a7,t3
     ec8:	020a1a63          	bnez	s4,efc <ee_printf+0x58c>
     ecc:	03000693          	li	a3,48
     ed0:	badd0823          	sb	a3,-1104(s10) # 1fbb0 <_data_lma+0x142b4>
     ed4:	001c8c93          	add	s9,s9,1
     ed8:	00400893          	li	a7,4
     edc:	0f1c8463          	beq	s9,a7,fc4 <ee_printf+0x654>
     ee0:	4b0b8f13          	add	t5,s7,1200
     ee4:	01010f93          	add	t6,sp,16
     ee8:	01ff02b3          	add	t0,t5,t6
     eec:	02e00513          	li	a0,46
     ef0:	001b8c13          	add	s8,s7,1
     ef4:	baa28823          	sb	a0,-1104(t0)
     ef8:	fb9ff06f          	j	eb0 <ee_printf+0x540>
     efc:	06300e93          	li	t4,99
     f00:	094ed463          	bge	t4,s4,f88 <ee_printf+0x618>
     f04:	06400593          	li	a1,100
     f08:	000a0513          	mv	a0,s4
     f0c:	00f12623          	sw	a5,12(sp)
     f10:	179000ef          	jal	1888 <__divsi3>
     f14:	00a90533          	add	a0,s2,a0
     f18:	00054303          	lbu	t1,0(a0)
     f1c:	06400593          	li	a1,100
     f20:	000a0513          	mv	a0,s4
     f24:	ba6d0823          	sb	t1,-1104(s10)
     f28:	1e5000ef          	jal	190c <__modsi3>
     f2c:	01010593          	add	a1,sp,16
     f30:	4b0b8b93          	add	s7,s7,1200
     f34:	00bb8a33          	add	s4,s7,a1
     f38:	00a00593          	li	a1,10
     f3c:	00050d13          	mv	s10,a0
     f40:	149000ef          	jal	1888 <__divsi3>
     f44:	00a903b3          	add	t2,s2,a0
     f48:	0003c783          	lbu	a5,0(t2)
     f4c:	00a00593          	li	a1,10
     f50:	000d0513          	mv	a0,s10
     f54:	bafa0823          	sb	a5,-1104(s4)
     f58:	1b5000ef          	jal	190c <__modsi3>
     f5c:	002c0c13          	add	s8,s8,2
     f60:	00050a13          	mv	s4,a0
     f64:	00c12783          	lw	a5,12(sp)
     f68:	01490733          	add	a4,s2,s4
     f6c:	00074603          	lbu	a2,0(a4)
     f70:	4b0c0093          	add	ra,s8,1200
     f74:	001c0b93          	add	s7,s8,1
     f78:	01010c13          	add	s8,sp,16
     f7c:	01808833          	add	a6,ra,s8
     f80:	bac80823          	sb	a2,-1104(a6)
     f84:	f51ff06f          	j	ed4 <ee_printf+0x564>
     f88:	00900f13          	li	t5,9
     f8c:	fd4f5ee3          	bge	t5,s4,f68 <ee_printf+0x5f8>
     f90:	00a00593          	li	a1,10
     f94:	000a0513          	mv	a0,s4
     f98:	00f12623          	sw	a5,12(sp)
     f9c:	0ed000ef          	jal	1888 <__divsi3>
     fa0:	00a90fb3          	add	t6,s2,a0
     fa4:	000fc283          	lbu	t0,0(t6)
     fa8:	000a0513          	mv	a0,s4
     fac:	00a00593          	li	a1,10
     fb0:	ba5d0823          	sb	t0,-1104(s10)
     fb4:	159000ef          	jal	190c <__modsi3>
     fb8:	00050a13          	mv	s4,a0
     fbc:	000b8c13          	mv	s8,s7
     fc0:	fa5ff06f          	j	f64 <ee_printf+0x5f4>
     fc4:	0107f913          	and	s2,a5,16
     fc8:	02091c63          	bnez	s2,1000 <ee_printf+0x690>
     fcc:	41798b33          	sub	s6,s3,s7
     fd0:	0179c463          	blt	s3,s7,fd8 <ee_printf+0x668>
     fd4:	000b0913          	mv	s2,s6
     fd8:	000d8513          	mv	a0,s11
     fdc:	00090613          	mv	a2,s2
     fe0:	02000593          	li	a1,32
     fe4:	544010ef          	jal	2528 <memset>
     fe8:	012d8db3          	add	s11,s11,s2
     fec:	00000e13          	li	t3,0
     ff0:	0179c463          	blt	s3,s7,ff8 <ee_printf+0x688>
     ff4:	41600e33          	neg	t3,s6
     ff8:	fff98993          	add	s3,s3,-1
     ffc:	013e09b3          	add	s3,t3,s3
    1000:	000d8513          	mv	a0,s11
    1004:	000b8613          	mv	a2,s7
    1008:	07010593          	add	a1,sp,112
    100c:	25c010ef          	jal	2268 <memcpy>
    1010:	017d8eb3          	add	t4,s11,s7
    1014:	00000d93          	li	s11,0
    1018:	e779c8e3          	blt	s3,s7,e88 <ee_printf+0x518>
    101c:	41798db3          	sub	s11,s3,s7
    1020:	e69ff06f          	j	e88 <ee_printf+0x518>
    1024:	0407e793          	or	a5,a5,64
    1028:	01000613          	li	a2,16
    102c:	bddff06f          	j	c08 <ee_printf+0x298>
    1030:	0027e793          	or	a5,a5,2
    1034:	00a00613          	li	a2,10
    1038:	bd1ff06f          	j	c08 <ee_printf+0x298>
    103c:	00740d13          	add	s10,s0,7
    1040:	ff8d7e13          	and	t3,s10,-8
    1044:	0107fc13          	and	s8,a5,16
    1048:	000e2d03          	lw	s10,0(t3)
    104c:	004e2a03          	lw	s4,4(t3)
    1050:	008e0413          	add	s0,t3,8
    1054:	0027e913          	or	s2,a5,2
    1058:	000c0663          	beqz	s8,1064 <ee_printf+0x6f4>
    105c:	ffe7fe93          	and	t4,a5,-2
    1060:	002ee913          	or	s2,t4,2
    1064:	00197f13          	and	t5,s2,1
    1068:	03000b93          	li	s7,48
    106c:	000f1463          	bnez	t5,1074 <ee_printf+0x704>
    1070:	02000b93          	li	s7,32
    1074:	00000613          	li	a2,0
    1078:	00000693          	li	a3,0
    107c:	000d0513          	mv	a0,s10
    1080:	000a0593          	mv	a1,s4
    1084:	5bc000ef          	jal	1640 <__ledf2>
    1088:	0c055c63          	bgez	a0,1160 <ee_printf+0x7f0>
    108c:	800002b7          	lui	t0,0x80000
    1090:	0142ca33          	xor	s4,t0,s4
    1094:	fff98993          	add	s3,s3,-1
    1098:	02d00b13          	li	s6,45
    109c:	fff00313          	li	t1,-1
    10a0:	006c9463          	bne	s9,t1,10a8 <ee_printf+0x738>
    10a4:	00600c93          	li	s9,6
    10a8:	000a0593          	mv	a1,s4
    10ac:	07010793          	add	a5,sp,112
    10b0:	01c10713          	add	a4,sp,28
    10b4:	01810693          	add	a3,sp,24
    10b8:	000c8613          	mv	a2,s9
    10bc:	000d0513          	mv	a0,s10
    10c0:	0c9000ef          	jal	1988 <fcvtbuf>
    10c4:	01c12383          	lw	t2,28(sp)
    10c8:	00050a13          	mv	s4,a0
    10cc:	02010293          	add	t0,sp,32
    10d0:	00038863          	beqz	t2,10e0 <ee_printf+0x770>
    10d4:	02d00793          	li	a5,45
    10d8:	02f10023          	sb	a5,32(sp)
    10dc:	02110293          	add	t0,sp,33
    10e0:	000a4703          	lbu	a4,0(s4)
    10e4:	0e070063          	beqz	a4,11c4 <ee_printf+0x854>
    10e8:	01812f03          	lw	t5,24(sp)
    10ec:	00000f93          	li	t6,0
    10f0:	02e00e93          	li	t4,46
    10f4:	0de04063          	bgtz	t5,11b4 <ee_printf+0x844>
    10f8:	41e00d33          	neg	s10,t5
    10fc:	03000093          	li	ra,48
    1100:	02e00313          	li	t1,46
    1104:	00128023          	sb	ra,0(t0) # 80000000 <__freertos_irq_stack_top+0x7ffd0000>
    1108:	00228513          	add	a0,t0,2
    110c:	006280a3          	sb	t1,1(t0)
    1110:	000d0613          	mv	a2,s10
    1114:	03000593          	li	a1,48
    1118:	410010ef          	jal	2528 <memset>
    111c:	01a502b3          	add	t0,a0,s10
    1120:	000a4383          	lbu	t2,0(s4)
    1124:	06039463          	bnez	t2,118c <ee_printf+0x81c>
    1128:	00028023          	sb	zero,0(t0)
    112c:	02097793          	and	a5,s2,32
    1130:	0a078663          	beqz	a5,11dc <ee_printf+0x86c>
    1134:	0a0c9463          	bnez	s9,11dc <ee_printf+0x86c>
    1138:	02010a13          	add	s4,sp,32
    113c:	02e00893          	li	a7,46
    1140:	06500693          	li	a3,101
    1144:	04500613          	li	a2,69
    1148:	000a4803          	lbu	a6,0(s4)
    114c:	16081663          	bnez	a6,12b8 <ee_printf+0x948>
    1150:	02e00713          	li	a4,46
    1154:	00ea0023          	sb	a4,0(s4)
    1158:	000a00a3          	sb	zero,1(s4)
    115c:	0800006f          	j	11dc <ee_printf+0x86c>
    1160:	00497f93          	and	t6,s2,4
    1164:	000f8863          	beqz	t6,1174 <ee_printf+0x804>
    1168:	fff98993          	add	s3,s3,-1
    116c:	02b00b13          	li	s6,43
    1170:	f2dff06f          	j	109c <ee_printf+0x72c>
    1174:	00897093          	and	ra,s2,8
    1178:	00000b13          	li	s6,0
    117c:	f20080e3          	beqz	ra,109c <ee_printf+0x72c>
    1180:	fff98993          	add	s3,s3,-1
    1184:	02000b13          	li	s6,32
    1188:	f15ff06f          	j	109c <ee_printf+0x72c>
    118c:	00128293          	add	t0,t0,1
    1190:	001a0a13          	add	s4,s4,1
    1194:	fe728fa3          	sb	t2,-1(t0)
    1198:	f89ff06f          	j	1120 <ee_printf+0x7b0>
    119c:	01ff1663          	bne	t5,t6,11a8 <ee_printf+0x838>
    11a0:	01d28023          	sb	t4,0(t0)
    11a4:	00128293          	add	t0,t0,1
    11a8:	01a28023          	sb	s10,0(t0)
    11ac:	001f8f93          	add	t6,t6,1
    11b0:	00128293          	add	t0,t0,1
    11b4:	01fa0e33          	add	t3,s4,t6
    11b8:	000e4d03          	lbu	s10,0(t3)
    11bc:	fe0d10e3          	bnez	s10,119c <ee_printf+0x82c>
    11c0:	f69ff06f          	j	1128 <ee_printf+0x7b8>
    11c4:	03000813          	li	a6,48
    11c8:	01028023          	sb	a6,0(t0)
    11cc:	0c0c9463          	bnez	s9,1294 <ee_printf+0x924>
    11d0:	000280a3          	sb	zero,1(t0)
    11d4:	02097c93          	and	s9,s2,32
    11d8:	f60c90e3          	bnez	s9,1138 <ee_printf+0x7c8>
    11dc:	10000593          	li	a1,256
    11e0:	02010513          	add	a0,sp,32
    11e4:	131020ef          	jal	3b14 <strnlen>
    11e8:	01197293          	and	t0,s2,17
    11ec:	00050a13          	mv	s4,a0
    11f0:	40a989b3          	sub	s3,s3,a0
    11f4:	02029663          	bnez	t0,1220 <ee_printf+0x8b0>
    11f8:	00098d13          	mv	s10,s3
    11fc:	0009d463          	bgez	s3,1204 <ee_printf+0x894>
    1200:	00000d13          	li	s10,0
    1204:	000d8513          	mv	a0,s11
    1208:	000d0613          	mv	a2,s10
    120c:	02000593          	li	a1,32
    1210:	318010ef          	jal	2528 <memset>
    1214:	fff98513          	add	a0,s3,-1
    1218:	01ad8db3          	add	s11,s11,s10
    121c:	41a509b3          	sub	s3,a0,s10
    1220:	000b0663          	beqz	s6,122c <ee_printf+0x8bc>
    1224:	016d8023          	sb	s6,0(s11)
    1228:	001d8d93          	add	s11,s11,1
    122c:	020c1663          	bnez	s8,1258 <ee_printf+0x8e8>
    1230:	00098913          	mv	s2,s3
    1234:	0009d463          	bgez	s3,123c <ee_printf+0x8cc>
    1238:	00000913          	li	s2,0
    123c:	000d8513          	mv	a0,s11
    1240:	00090613          	mv	a2,s2
    1244:	000b8593          	mv	a1,s7
    1248:	2e0010ef          	jal	2528 <memset>
    124c:	fff98313          	add	t1,s3,-1
    1250:	012d8db3          	add	s11,s11,s2
    1254:	412309b3          	sub	s3,t1,s2
    1258:	000a5463          	bgez	s4,1260 <ee_printf+0x8f0>
    125c:	00000a13          	li	s4,0
    1260:	000d8513          	mv	a0,s11
    1264:	000a0613          	mv	a2,s4
    1268:	02010593          	add	a1,sp,32
    126c:	7fd000ef          	jal	2268 <memcpy>
    1270:	014d8db3          	add	s11,s11,s4
    1274:	0009d463          	bgez	s3,127c <ee_printf+0x90c>
    1278:	00000993          	li	s3,0
    127c:	000d8513          	mv	a0,s11
    1280:	00098613          	mv	a2,s3
    1284:	02000593          	li	a1,32
    1288:	2a0010ef          	jal	2528 <memset>
    128c:	013d8db3          	add	s11,s11,s3
    1290:	aa9ff06f          	j	d38 <ee_printf+0x3c8>
    1294:	02e00693          	li	a3,46
    1298:	00228513          	add	a0,t0,2
    129c:	00d280a3          	sb	a3,1(t0)
    12a0:	000c8613          	mv	a2,s9
    12a4:	03000593          	li	a1,48
    12a8:	280010ef          	jal	2528 <memset>
    12ac:	019508b3          	add	a7,a0,s9
    12b0:	00088023          	sb	zero,0(a7)
    12b4:	f29ff06f          	j	11dc <ee_printf+0x86c>
    12b8:	f31802e3          	beq	a6,a7,11dc <ee_printf+0x86c>
    12bc:	04d80463          	beq	a6,a3,1304 <ee_printf+0x994>
    12c0:	04c80263          	beq	a6,a2,1304 <ee_printf+0x994>
    12c4:	001a0a13          	add	s4,s4,1
    12c8:	e81ff06f          	j	1148 <ee_printf+0x7d8>
    12cc:	02500393          	li	t2,37
    12d0:	007d0663          	beq	s10,t2,12dc <ee_printf+0x96c>
    12d4:	007d8023          	sb	t2,0(s11)
    12d8:	001d8d93          	add	s11,s11,1
    12dc:	0004c683          	lbu	a3,0(s1)
    12e0:	00068663          	beqz	a3,12ec <ee_printf+0x97c>
    12e4:	00dd8023          	sb	a3,0(s11)
    12e8:	f70ff06f          	j	a58 <ee_printf+0xe8>
    12ec:	fff48493          	add	s1,s1,-1
    12f0:	a49ff06f          	j	d38 <ee_printf+0x3c8>
    12f4:	8901a683          	lw	a3,-1904(gp) # 216e8 <hw_pointer>
    12f8:	00150513          	add	a0,a0,1
    12fc:	00968023          	sb	s1,0(a3)
    1300:	efcff06f          	j	9fc <ee_printf+0x8c>
    1304:	10000593          	li	a1,256
    1308:	000a0513          	mv	a0,s4
    130c:	009020ef          	jal	3b14 <strnlen>
    1310:	00050613          	mv	a2,a0
    1314:	00055463          	bgez	a0,131c <ee_printf+0x9ac>
    1318:	00000613          	li	a2,0
    131c:	00150e13          	add	t3,a0,1
    1320:	00250f13          	add	t5,a0,2
    1324:	40ce0eb3          	sub	t4,t3,a2
    1328:	40cf0cb3          	sub	s9,t5,a2
    132c:	01da05b3          	add	a1,s4,t4
    1330:	019a0533          	add	a0,s4,s9
    1334:	0d8010ef          	jal	240c <memmove>
    1338:	02e00f93          	li	t6,46
    133c:	01fa0023          	sb	t6,0(s4)
    1340:	e9dff06f          	j	11dc <ee_printf+0x86c>

00001344 <my_printf>:
    1344:	fd010113          	add	sp,sp,-48
    1348:	00812423          	sw	s0,8(sp)
    134c:	00d12e23          	sw	a3,28(sp)
    1350:	00112623          	sw	ra,12(sp)
    1354:	00b12a23          	sw	a1,20(sp)
    1358:	00c12c23          	sw	a2,24(sp)
    135c:	02e12023          	sw	a4,32(sp)
    1360:	02f12223          	sw	a5,36(sp)
    1364:	03012423          	sw	a6,40(sp)
    1368:	03112623          	sw	a7,44(sp)
    136c:	000202b7          	lui	t0,0x20
    1370:	00000413          	li	s0,0
    1374:	8851a823          	sw	t0,-1904(gp) # 216e8 <hw_pointer>
    1378:	00850733          	add	a4,a0,s0
    137c:	00074083          	lbu	ra,0(a4)
    1380:	02009063          	bnez	ra,13a0 <my_printf+0x5c>
    1384:	00028023          	sb	zero,0(t0) # 20000 <_data>
    1388:	dc4ff0ef          	jal	94c <set_print_flag>
    138c:	00c12083          	lw	ra,12(sp)
    1390:	00040513          	mv	a0,s0
    1394:	00812403          	lw	s0,8(sp)
    1398:	03010113          	add	sp,sp,48
    139c:	00008067          	ret
    13a0:	00128023          	sb	ra,0(t0)
    13a4:	8901a783          	lw	a5,-1904(gp) # 216e8 <hw_pointer>
    13a8:	00140413          	add	s0,s0,1
    13ac:	00478293          	add	t0,a5,4
    13b0:	fc5ff06f          	j	1374 <my_printf+0x30>

000013b4 <Proc_2>:
    13b4:	87d1c703          	lbu	a4,-1923(gp) # 216d5 <Ch_1_Glob>
    13b8:	04100293          	li	t0,65
    13bc:	00571c63          	bne	a4,t0,13d4 <Proc_2+0x20>
    13c0:	00052303          	lw	t1,0(a0)
    13c4:	8841a603          	lw	a2,-1916(gp) # 216dc <Int_Glob>
    13c8:	00930393          	add	t2,t1,9
    13cc:	40c386b3          	sub	a3,t2,a2
    13d0:	00d52023          	sw	a3,0(a0)
    13d4:	00008067          	ret

000013d8 <Proc_3>:
    13d8:	88c1a703          	lw	a4,-1908(gp) # 216e4 <Ptr_Glob>
    13dc:	00070663          	beqz	a4,13e8 <Proc_3+0x10>
    13e0:	00072283          	lw	t0,0(a4)
    13e4:	00552023          	sw	t0,0(a0)
    13e8:	88c1a603          	lw	a2,-1908(gp) # 216e4 <Ptr_Glob>
    13ec:	8841a583          	lw	a1,-1916(gp) # 216dc <Int_Glob>
    13f0:	00c60613          	add	a2,a2,12 # 2000c <_data+0xc>
    13f4:	00a00513          	li	a0,10
    13f8:	1440006f          	j	153c <Proc_7>

000013fc <Proc_1>:
    13fc:	ff010113          	add	sp,sp,-16
    1400:	00812423          	sw	s0,8(sp)
    1404:	01212023          	sw	s2,0(sp)
    1408:	00052403          	lw	s0,0(a0)
    140c:	88c1a583          	lw	a1,-1908(gp) # 216e4 <Ptr_Glob>
    1410:	00912223          	sw	s1,4(sp)
    1414:	03000613          	li	a2,48
    1418:	00050493          	mv	s1,a0
    141c:	00040513          	mv	a0,s0
    1420:	00112623          	sw	ra,12(sp)
    1424:	645000ef          	jal	2268 <memcpy>
    1428:	0004a283          	lw	t0,0(s1)
    142c:	00500793          	li	a5,5
    1430:	00f4a623          	sw	a5,12(s1)
    1434:	00f42623          	sw	a5,12(s0)
    1438:	00542023          	sw	t0,0(s0)
    143c:	00040513          	mv	a0,s0
    1440:	f99ff0ef          	jal	13d8 <Proc_3>
    1444:	00442303          	lw	t1,4(s0)
    1448:	04031463          	bnez	t1,1490 <Proc_1+0x94>
    144c:	0084a503          	lw	a0,8(s1)
    1450:	00600093          	li	ra,6
    1454:	00142623          	sw	ra,12(s0)
    1458:	00840593          	add	a1,s0,8
    145c:	090000ef          	jal	14ec <Proc_6>
    1460:	88c1a383          	lw	t2,-1908(gp) # 216e4 <Ptr_Glob>
    1464:	00c40613          	add	a2,s0,12
    1468:	00c12083          	lw	ra,12(sp)
    146c:	0003a503          	lw	a0,0(t2)
    1470:	00412483          	lw	s1,4(sp)
    1474:	00012903          	lw	s2,0(sp)
    1478:	00a42023          	sw	a0,0(s0)
    147c:	00c42503          	lw	a0,12(s0)
    1480:	00812403          	lw	s0,8(sp)
    1484:	00a00593          	li	a1,10
    1488:	01010113          	add	sp,sp,16
    148c:	0b00006f          	j	153c <Proc_7>
    1490:	0004a583          	lw	a1,0(s1)
    1494:	00048513          	mv	a0,s1
    1498:	03000613          	li	a2,48
    149c:	5cd000ef          	jal	2268 <memcpy>
    14a0:	00c12083          	lw	ra,12(sp)
    14a4:	00812403          	lw	s0,8(sp)
    14a8:	00412483          	lw	s1,4(sp)
    14ac:	00012903          	lw	s2,0(sp)
    14b0:	01010113          	add	sp,sp,16
    14b4:	00008067          	ret

000014b8 <Proc_4>:
    14b8:	87d1c283          	lbu	t0,-1923(gp) # 216d5 <Ch_1_Glob>
    14bc:	8801a683          	lw	a3,-1920(gp) # 216d8 <Bool_Glob>
    14c0:	fbf28313          	add	t1,t0,-65
    14c4:	00133393          	seqz	t2,t1
    14c8:	00d3e533          	or	a0,t2,a3
    14cc:	04200613          	li	a2,66
    14d0:	88a1a023          	sw	a0,-1920(gp) # 216d8 <Bool_Glob>
    14d4:	86c18e23          	sb	a2,-1924(gp) # 216d4 <Ch_2_Glob>
    14d8:	00008067          	ret

000014dc <Proc_5>:
    14dc:	04100713          	li	a4,65
    14e0:	86e18ea3          	sb	a4,-1923(gp) # 216d5 <Ch_1_Glob>
    14e4:	8801a023          	sw	zero,-1920(gp) # 216d8 <Bool_Glob>
    14e8:	00008067          	ret

000014ec <Proc_6>:
    14ec:	00200793          	li	a5,2
    14f0:	00f51863          	bne	a0,a5,1500 <Proc_6+0x14>
    14f4:	00100813          	li	a6,1
    14f8:	0105a023          	sw	a6,0(a1)
    14fc:	00008067          	ret
    1500:	00300713          	li	a4,3
    1504:	00e5a023          	sw	a4,0(a1)
    1508:	00100293          	li	t0,1
    150c:	00550c63          	beq	a0,t0,1524 <Proc_6+0x38>
    1510:	00400693          	li	a3,4
    1514:	02d50063          	beq	a0,a3,1534 <Proc_6+0x48>
    1518:	00051c63          	bnez	a0,1530 <Proc_6+0x44>
    151c:	0005a023          	sw	zero,0(a1)
    1520:	00008067          	ret
    1524:	8841a383          	lw	t2,-1916(gp) # 216dc <Int_Glob>
    1528:	06400613          	li	a2,100
    152c:	fe7648e3          	blt	a2,t2,151c <Proc_6+0x30>
    1530:	00008067          	ret
    1534:	00f5a023          	sw	a5,0(a1)
    1538:	ff9ff06f          	j	1530 <Proc_6+0x44>

0000153c <Proc_7>:
    153c:	00250513          	add	a0,a0,2
    1540:	00b502b3          	add	t0,a0,a1
    1544:	00562023          	sw	t0,0(a2)
    1548:	00008067          	ret

0000154c <Proc_8>:
    154c:	00560713          	add	a4,a2,5
    1550:	00171293          	sll	t0,a4,0x1
    1554:	00e28333          	add	t1,t0,a4
    1558:	00271793          	sll	a5,a4,0x2
    155c:	00f50533          	add	a0,a0,a5
    1560:	00331393          	sll	t2,t1,0x3
    1564:	00d52023          	sw	a3,0(a0)
    1568:	00d52223          	sw	a3,4(a0)
    156c:	00e386b3          	add	a3,t2,a4
    1570:	00369813          	sll	a6,a3,0x3
    1574:	00261613          	sll	a2,a2,0x2
    1578:	00c808b3          	add	a7,a6,a2
    157c:	06e52c23          	sw	a4,120(a0)
    1580:	01158e33          	add	t3,a1,a7
    1584:	010e2e83          	lw	t4,16(t3)
    1588:	00ee2a23          	sw	a4,20(t3)
    158c:	00ee2c23          	sw	a4,24(t3)
    1590:	001e8f13          	add	t5,t4,1
    1594:	01ee2823          	sw	t5,16(t3)
    1598:	00052f83          	lw	t6,0(a0)
    159c:	010585b3          	add	a1,a1,a6
    15a0:	00c58733          	add	a4,a1,a2
    15a4:	000017b7          	lui	a5,0x1
    15a8:	00e78533          	add	a0,a5,a4
    15ac:	00500313          	li	t1,5
    15b0:	fbf52a23          	sw	t6,-76(a0)
    15b4:	8861a223          	sw	t1,-1916(gp) # 216dc <Int_Glob>
    15b8:	00008067          	ret

000015bc <Func_1>:
    15bc:	0ff57513          	zext.b	a0,a0
    15c0:	0ff5f593          	zext.b	a1,a1
    15c4:	00b51863          	bne	a0,a1,15d4 <Func_1+0x18>
    15c8:	86a18ea3          	sb	a0,-1923(gp) # 216d5 <Ch_1_Glob>
    15cc:	00100513          	li	a0,1
    15d0:	00008067          	ret
    15d4:	00000513          	li	a0,0
    15d8:	00008067          	ret

000015dc <Func_2>:
    15dc:	ff010113          	add	sp,sp,-16
    15e0:	00112623          	sw	ra,12(sp)
    15e4:	00254683          	lbu	a3,2(a0)
    15e8:	0035c603          	lbu	a2,3(a1)
    15ec:	00000793          	li	a5,0
    15f0:	00000713          	li	a4,0
    15f4:	02c68a63          	beq	a3,a2,1628 <Func_2+0x4c>
    15f8:	00070463          	beqz	a4,1600 <Func_2+0x24>
    15fc:	86f18ea3          	sb	a5,-1923(gp) # 216d5 <Ch_1_Glob>
    1600:	2e8020ef          	jal	38e8 <strcmp>
    1604:	00000393          	li	t2,0
    1608:	00a05863          	blez	a0,1618 <Func_2+0x3c>
    160c:	00a00313          	li	t1,10
    1610:	8861a223          	sw	t1,-1916(gp) # 216dc <Int_Glob>
    1614:	00100393          	li	t2,1
    1618:	00c12083          	lw	ra,12(sp)
    161c:	00038513          	mv	a0,t2
    1620:	01010113          	add	sp,sp,16
    1624:	00008067          	ret
    1628:	00100713          	li	a4,1
    162c:	00068793          	mv	a5,a3
    1630:	fc5ff06f          	j	15f4 <Func_2+0x18>

00001634 <Func_3>:
    1634:	ffe50513          	add	a0,a0,-2
    1638:	00153513          	seqz	a0,a0
    163c:	00008067          	ret

00001640 <__ledf2>:
    1640:	00050813          	mv	a6,a0
    1644:	002027f3          	frrm	a5
    1648:	00100737          	lui	a4,0x100
    164c:	0146d793          	srl	a5,a3,0x14
    1650:	0145d313          	srl	t1,a1,0x14
    1654:	fff70713          	add	a4,a4,-1 # fffff <__freertos_irq_stack_top+0xcffff>
    1658:	00050e13          	mv	t3,a0
    165c:	7ff37313          	and	t1,t1,2047
    1660:	7ff7f513          	and	a0,a5,2047
    1664:	7ff00793          	li	a5,2047
    1668:	00b778b3          	and	a7,a4,a1
    166c:	00060e93          	mv	t4,a2
    1670:	00d77733          	and	a4,a4,a3
    1674:	01f5d593          	srl	a1,a1,0x1f
    1678:	01f6d693          	srl	a3,a3,0x1f
    167c:	02f31a63          	bne	t1,a5,16b0 <__ledf2+0x70>
    1680:	0108e8b3          	or	a7,a7,a6
    1684:	0c089063          	bnez	a7,1744 <__ledf2+0x104>
    1688:	00650a63          	beq	a0,t1,169c <__ledf2+0x5c>
    168c:	00100513          	li	a0,1
    1690:	0a058863          	beqz	a1,1740 <__ledf2+0x100>
    1694:	fff00513          	li	a0,-1
    1698:	00008067          	ret
    169c:	00c76733          	or	a4,a4,a2
    16a0:	0a071263          	bnez	a4,1744 <__ledf2+0x104>
    16a4:	fed594e3          	bne	a1,a3,168c <__ledf2+0x4c>
    16a8:	00000513          	li	a0,0
    16ac:	00008067          	ret
    16b0:	02f51e63          	bne	a0,a5,16ec <__ledf2+0xac>
    16b4:	00c76733          	or	a4,a4,a2
    16b8:	08071663          	bnez	a4,1744 <__ledf2+0x104>
    16bc:	00030c63          	beqz	t1,16d4 <__ledf2+0x94>
    16c0:	fcd596e3          	bne	a1,a3,168c <__ledf2+0x4c>
    16c4:	fff00513          	li	a0,-1
    16c8:	06058c63          	beqz	a1,1740 <__ledf2+0x100>
    16cc:	00058513          	mv	a0,a1
    16d0:	00008067          	ret
    16d4:	0108e8b3          	or	a7,a7,a6
    16d8:	fe0894e3          	bnez	a7,16c0 <__ledf2+0x80>
    16dc:	fff00513          	li	a0,-1
    16e0:	06068063          	beqz	a3,1740 <__ledf2+0x100>
    16e4:	00068513          	mv	a0,a3
    16e8:	00008067          	ret
    16ec:	02030663          	beqz	t1,1718 <__ledf2+0xd8>
    16f0:	f8050ee3          	beqz	a0,168c <__ledf2+0x4c>
    16f4:	f8d59ce3          	bne	a1,a3,168c <__ledf2+0x4c>
    16f8:	f8654ae3          	blt	a0,t1,168c <__ledf2+0x4c>
    16fc:	fca344e3          	blt	t1,a0,16c4 <__ledf2+0x84>
    1700:	f91766e3          	bltu	a4,a7,168c <__ledf2+0x4c>
    1704:	fce890e3          	bne	a7,a4,16c4 <__ledf2+0x84>
    1708:	f9cee2e3          	bltu	t4,t3,168c <__ledf2+0x4c>
    170c:	00000513          	li	a0,0
    1710:	03de7863          	bgeu	t3,t4,1740 <__ledf2+0x100>
    1714:	fb1ff06f          	j	16c4 <__ledf2+0x84>
    1718:	0108e833          	or	a6,a7,a6
    171c:	00050663          	beqz	a0,1728 <__ledf2+0xe8>
    1720:	fa080ee3          	beqz	a6,16dc <__ledf2+0x9c>
    1724:	f9dff06f          	j	16c0 <__ledf2+0x80>
    1728:	00c76633          	or	a2,a4,a2
    172c:	00060863          	beqz	a2,173c <__ledf2+0xfc>
    1730:	fa0806e3          	beqz	a6,16dc <__ledf2+0x9c>
    1734:	fcd586e3          	beq	a1,a3,1700 <__ledf2+0xc0>
    1738:	f55ff06f          	j	168c <__ledf2+0x4c>
    173c:	f40818e3          	bnez	a6,168c <__ledf2+0x4c>
    1740:	00008067          	ret
    1744:	00186073          	csrs	fflags,16
    1748:	00200513          	li	a0,2
    174c:	00008067          	ret

00001750 <__extendsfdf2>:
    1750:	ff010113          	add	sp,sp,-16
    1754:	e00507d3          	fmv.x.w	a5,fa0
    1758:	00112623          	sw	ra,12(sp)
    175c:	00812423          	sw	s0,8(sp)
    1760:	00912223          	sw	s1,4(sp)
    1764:	01212023          	sw	s2,0(sp)
    1768:	00202773          	frrm	a4
    176c:	0177d493          	srl	s1,a5,0x17
    1770:	0ff4f493          	zext.b	s1,s1
    1774:	00979413          	sll	s0,a5,0x9
    1778:	01f7d913          	srl	s2,a5,0x1f
    177c:	00148793          	add	a5,s1,1
    1780:	0fe7f793          	and	a5,a5,254
    1784:	00945413          	srl	s0,s0,0x9
    1788:	04078a63          	beqz	a5,17dc <__extendsfdf2+0x8c>
    178c:	38048513          	add	a0,s1,896
    1790:	00345793          	srl	a5,s0,0x3
    1794:	00000493          	li	s1,0
    1798:	01d41413          	sll	s0,s0,0x1d
    179c:	00c79793          	sll	a5,a5,0xc
    17a0:	00c7d793          	srl	a5,a5,0xc
    17a4:	01451513          	sll	a0,a0,0x14
    17a8:	00f56533          	or	a0,a0,a5
    17ac:	01f91793          	sll	a5,s2,0x1f
    17b0:	00f56733          	or	a4,a0,a5
    17b4:	00070593          	mv	a1,a4
    17b8:	00040513          	mv	a0,s0
    17bc:	00048463          	beqz	s1,17c4 <__extendsfdf2+0x74>
    17c0:	00186073          	csrs	fflags,16
    17c4:	00c12083          	lw	ra,12(sp)
    17c8:	00812403          	lw	s0,8(sp)
    17cc:	00412483          	lw	s1,4(sp)
    17d0:	00012903          	lw	s2,0(sp)
    17d4:	01010113          	add	sp,sp,16
    17d8:	00008067          	ret
    17dc:	04049463          	bnez	s1,1824 <__extendsfdf2+0xd4>
    17e0:	06040663          	beqz	s0,184c <__extendsfdf2+0xfc>
    17e4:	00040513          	mv	a0,s0
    17e8:	154000ef          	jal	193c <__clzsi2>
    17ec:	00a00793          	li	a5,10
    17f0:	02a7c263          	blt	a5,a0,1814 <__extendsfdf2+0xc4>
    17f4:	00b00793          	li	a5,11
    17f8:	40a787b3          	sub	a5,a5,a0
    17fc:	01550713          	add	a4,a0,21
    1800:	00f457b3          	srl	a5,s0,a5
    1804:	00e41433          	sll	s0,s0,a4
    1808:	38900713          	li	a4,905
    180c:	40a70533          	sub	a0,a4,a0
    1810:	f8dff06f          	j	179c <__extendsfdf2+0x4c>
    1814:	ff550793          	add	a5,a0,-11
    1818:	00f417b3          	sll	a5,s0,a5
    181c:	00000413          	li	s0,0
    1820:	fe9ff06f          	j	1808 <__extendsfdf2+0xb8>
    1824:	02040a63          	beqz	s0,1858 <__extendsfdf2+0x108>
    1828:	004004b7          	lui	s1,0x400
    182c:	009434b3          	sltu	s1,s0,s1
    1830:	00345793          	srl	a5,s0,0x3
    1834:	00080737          	lui	a4,0x80
    1838:	00449493          	sll	s1,s1,0x4
    183c:	01d41413          	sll	s0,s0,0x1d
    1840:	00e7e7b3          	or	a5,a5,a4
    1844:	7ff00513          	li	a0,2047
    1848:	f55ff06f          	j	179c <__extendsfdf2+0x4c>
    184c:	00000793          	li	a5,0
    1850:	00000513          	li	a0,0
    1854:	f49ff06f          	j	179c <__extendsfdf2+0x4c>
    1858:	00000793          	li	a5,0
    185c:	00000493          	li	s1,0
    1860:	fe5ff06f          	j	1844 <__extendsfdf2+0xf4>

00001864 <__mulsi3>:
    1864:	00050613          	mv	a2,a0
    1868:	00000513          	li	a0,0
    186c:	0015f693          	and	a3,a1,1
    1870:	00068463          	beqz	a3,1878 <__mulsi3+0x14>
    1874:	00c50533          	add	a0,a0,a2
    1878:	0015d593          	srl	a1,a1,0x1
    187c:	00161613          	sll	a2,a2,0x1
    1880:	fe0596e3          	bnez	a1,186c <__mulsi3+0x8>
    1884:	00008067          	ret

00001888 <__divsi3>:
    1888:	06054063          	bltz	a0,18e8 <__umodsi3+0x10>
    188c:	0605c663          	bltz	a1,18f8 <__umodsi3+0x20>

00001890 <__hidden___udivsi3>:
    1890:	00058613          	mv	a2,a1
    1894:	00050593          	mv	a1,a0
    1898:	fff00513          	li	a0,-1
    189c:	02060c63          	beqz	a2,18d4 <__hidden___udivsi3+0x44>
    18a0:	00100693          	li	a3,1
    18a4:	00b67a63          	bgeu	a2,a1,18b8 <__hidden___udivsi3+0x28>
    18a8:	00c05863          	blez	a2,18b8 <__hidden___udivsi3+0x28>
    18ac:	00161613          	sll	a2,a2,0x1
    18b0:	00169693          	sll	a3,a3,0x1
    18b4:	feb66ae3          	bltu	a2,a1,18a8 <__hidden___udivsi3+0x18>
    18b8:	00000513          	li	a0,0
    18bc:	00c5e663          	bltu	a1,a2,18c8 <__hidden___udivsi3+0x38>
    18c0:	40c585b3          	sub	a1,a1,a2
    18c4:	00d56533          	or	a0,a0,a3
    18c8:	0016d693          	srl	a3,a3,0x1
    18cc:	00165613          	srl	a2,a2,0x1
    18d0:	fe0696e3          	bnez	a3,18bc <__hidden___udivsi3+0x2c>
    18d4:	00008067          	ret

000018d8 <__umodsi3>:
    18d8:	00008293          	mv	t0,ra
    18dc:	fb5ff0ef          	jal	1890 <__hidden___udivsi3>
    18e0:	00058513          	mv	a0,a1
    18e4:	00028067          	jr	t0
    18e8:	40a00533          	neg	a0,a0
    18ec:	00b04863          	bgtz	a1,18fc <__umodsi3+0x24>
    18f0:	40b005b3          	neg	a1,a1
    18f4:	f9dff06f          	j	1890 <__hidden___udivsi3>
    18f8:	40b005b3          	neg	a1,a1
    18fc:	00008293          	mv	t0,ra
    1900:	f91ff0ef          	jal	1890 <__hidden___udivsi3>
    1904:	40a00533          	neg	a0,a0
    1908:	00028067          	jr	t0

0000190c <__modsi3>:
    190c:	00008293          	mv	t0,ra
    1910:	0005ca63          	bltz	a1,1924 <__modsi3+0x18>
    1914:	00054c63          	bltz	a0,192c <__modsi3+0x20>
    1918:	f79ff0ef          	jal	1890 <__hidden___udivsi3>
    191c:	00058513          	mv	a0,a1
    1920:	00028067          	jr	t0
    1924:	40b005b3          	neg	a1,a1
    1928:	fe0558e3          	bgez	a0,1918 <__modsi3+0xc>
    192c:	40a00533          	neg	a0,a0
    1930:	f61ff0ef          	jal	1890 <__hidden___udivsi3>
    1934:	40b00533          	neg	a0,a1
    1938:	00028067          	jr	t0

0000193c <__clzsi2>:
    193c:	000107b7          	lui	a5,0x10
    1940:	02f57a63          	bgeu	a0,a5,1974 <__clzsi2+0x38>
    1944:	10053793          	sltiu	a5,a0,256
    1948:	0017c793          	xor	a5,a5,1
    194c:	00379793          	sll	a5,a5,0x3
    1950:	02000713          	li	a4,32
    1954:	40f70733          	sub	a4,a4,a5
    1958:	00f55533          	srl	a0,a0,a5
    195c:	0001f797          	auipc	a5,0x1f
    1960:	d4078793          	add	a5,a5,-704 # 2069c <__clz_tab>
    1964:	00a787b3          	add	a5,a5,a0
    1968:	0007c503          	lbu	a0,0(a5)
    196c:	40a70533          	sub	a0,a4,a0
    1970:	00008067          	ret
    1974:	01000737          	lui	a4,0x1000
    1978:	01000793          	li	a5,16
    197c:	fce56ae3          	bltu	a0,a4,1950 <__clzsi2+0x14>
    1980:	01800793          	li	a5,24
    1984:	fcdff06f          	j	1950 <__clzsi2+0x14>

00001988 <fcvtbuf>:
    1988:	fc010113          	add	sp,sp,-64
    198c:	02812c23          	sw	s0,56(sp)
    1990:	02912a23          	sw	s1,52(sp)
    1994:	03212823          	sw	s2,48(sp)
    1998:	03312623          	sw	s3,44(sp)
    199c:	03412423          	sw	s4,40(sp)
    19a0:	03512223          	sw	s5,36(sp)
    19a4:	02112e23          	sw	ra,60(sp)
    19a8:	03612023          	sw	s6,32(sp)
    19ac:	00078493          	mv	s1,a5
    19b0:	00050a13          	mv	s4,a0
    19b4:	00058993          	mv	s3,a1
    19b8:	00060413          	mv	s0,a2
    19bc:	00068913          	mv	s2,a3
    19c0:	00070813          	mv	a6,a4
    19c4:	00020a97          	auipc	s5,0x20
    19c8:	c94aaa83          	lw	s5,-876(s5) # 21658 <_impure_ptr>
    19cc:	0a078263          	beqz	a5,1a70 <fcvtbuf+0xe8>
    19d0:	00090793          	mv	a5,s2
    19d4:	00040713          	mv	a4,s0
    19d8:	00300693          	li	a3,3
    19dc:	01c10893          	add	a7,sp,28
    19e0:	00098613          	mv	a2,s3
    19e4:	000a0593          	mv	a1,s4
    19e8:	000a8513          	mv	a0,s5
    19ec:	4dc020ef          	jal	3ec8 <_dtoa_r>
    19f0:	00092783          	lw	a5,0(s2)
    19f4:	01c12703          	lw	a4,28(sp)
    19f8:	00048693          	mv	a3,s1
    19fc:	40f007b3          	neg	a5,a5
    1a00:	02e57263          	bgeu	a0,a4,1a24 <fcvtbuf+0x9c>
    1a04:	00054703          	lbu	a4,0(a0)
    1a08:	00150513          	add	a0,a0,1
    1a0c:	00168693          	add	a3,a3,1
    1a10:	fee68fa3          	sb	a4,-1(a3)
    1a14:	01c12703          	lw	a4,28(sp)
    1a18:	fee566e3          	bltu	a0,a4,1a04 <fcvtbuf+0x7c>
    1a1c:	409787b3          	sub	a5,a5,s1
    1a20:	00f687b3          	add	a5,a3,a5
    1a24:	0887d663          	bge	a5,s0,1ab0 <fcvtbuf+0x128>
    1a28:	40f40733          	sub	a4,s0,a5
    1a2c:	00e68733          	add	a4,a3,a4
    1a30:	03000793          	li	a5,48
    1a34:	00168693          	add	a3,a3,1
    1a38:	fef68fa3          	sb	a5,-1(a3)
    1a3c:	fed71ce3          	bne	a4,a3,1a34 <fcvtbuf+0xac>
    1a40:	00070023          	sb	zero,0(a4) # 1000000 <__freertos_irq_stack_top+0xfd0000>
    1a44:	00048513          	mv	a0,s1
    1a48:	03c12083          	lw	ra,60(sp)
    1a4c:	03812403          	lw	s0,56(sp)
    1a50:	03412483          	lw	s1,52(sp)
    1a54:	03012903          	lw	s2,48(sp)
    1a58:	02c12983          	lw	s3,44(sp)
    1a5c:	02812a03          	lw	s4,40(sp)
    1a60:	02412a83          	lw	s5,36(sp)
    1a64:	02012b03          	lw	s6,32(sp)
    1a68:	04010113          	add	sp,sp,64
    1a6c:	00008067          	ret
    1a70:	050aa703          	lw	a4,80(s5)
    1a74:	02360793          	add	a5,a2,35
    1a78:	054aa483          	lw	s1,84(s5)
    1a7c:	f4e7cae3          	blt	a5,a4,19d0 <fcvtbuf+0x48>
    1a80:	02460b13          	add	s6,a2,36
    1a84:	00048593          	mv	a1,s1
    1a88:	000b0613          	mv	a2,s6
    1a8c:	000a8513          	mv	a0,s5
    1a90:	01012623          	sw	a6,12(sp)
    1a94:	0ad010ef          	jal	3340 <_realloc_r>
    1a98:	00050493          	mv	s1,a0
    1a9c:	00050e63          	beqz	a0,1ab8 <fcvtbuf+0x130>
    1aa0:	00c12803          	lw	a6,12(sp)
    1aa4:	056aa823          	sw	s6,80(s5)
    1aa8:	04aaaa23          	sw	a0,84(s5)
    1aac:	f25ff06f          	j	19d0 <fcvtbuf+0x48>
    1ab0:	00068713          	mv	a4,a3
    1ab4:	f8dff06f          	j	1a40 <fcvtbuf+0xb8>
    1ab8:	00000513          	li	a0,0
    1abc:	f8dff06f          	j	1a48 <fcvtbuf+0xc0>

00001ac0 <malloc>:
    1ac0:	00050593          	mv	a1,a0
    1ac4:	00020517          	auipc	a0,0x20
    1ac8:	b9452503          	lw	a0,-1132(a0) # 21658 <_impure_ptr>
    1acc:	0040006f          	j	1ad0 <_malloc_r>

00001ad0 <_malloc_r>:
    1ad0:	fd010113          	add	sp,sp,-48
    1ad4:	03212023          	sw	s2,32(sp)
    1ad8:	02112623          	sw	ra,44(sp)
    1adc:	02812423          	sw	s0,40(sp)
    1ae0:	02912223          	sw	s1,36(sp)
    1ae4:	01312e23          	sw	s3,28(sp)
    1ae8:	01412c23          	sw	s4,24(sp)
    1aec:	01512a23          	sw	s5,20(sp)
    1af0:	01612823          	sw	s6,16(sp)
    1af4:	01712623          	sw	s7,12(sp)
    1af8:	01812423          	sw	s8,8(sp)
    1afc:	01912223          	sw	s9,4(sp)
    1b00:	00b58793          	add	a5,a1,11
    1b04:	01600713          	li	a4,22
    1b08:	00050913          	mv	s2,a0
    1b0c:	08f76e63          	bltu	a4,a5,1ba8 <_malloc_r+0xd8>
    1b10:	01000793          	li	a5,16
    1b14:	22b7e063          	bltu	a5,a1,1d34 <_malloc_r+0x264>
    1b18:	2ed000ef          	jal	2604 <__malloc_lock>
    1b1c:	01000493          	li	s1,16
    1b20:	01800793          	li	a5,24
    1b24:	00200593          	li	a1,2
    1b28:	0001f997          	auipc	s3,0x1f
    1b2c:	5b898993          	add	s3,s3,1464 # 210e0 <__malloc_av_>
    1b30:	00f987b3          	add	a5,s3,a5
    1b34:	0047a403          	lw	s0,4(a5)
    1b38:	ff878713          	add	a4,a5,-8
    1b3c:	30e40e63          	beq	s0,a4,1e58 <_malloc_r+0x388>
    1b40:	00442783          	lw	a5,4(s0)
    1b44:	00c42683          	lw	a3,12(s0)
    1b48:	00842603          	lw	a2,8(s0)
    1b4c:	ffc7f793          	and	a5,a5,-4
    1b50:	00f407b3          	add	a5,s0,a5
    1b54:	0047a703          	lw	a4,4(a5)
    1b58:	00d62623          	sw	a3,12(a2)
    1b5c:	00c6a423          	sw	a2,8(a3)
    1b60:	00176713          	or	a4,a4,1
    1b64:	00090513          	mv	a0,s2
    1b68:	00e7a223          	sw	a4,4(a5)
    1b6c:	29d000ef          	jal	2608 <__malloc_unlock>
    1b70:	00840513          	add	a0,s0,8
    1b74:	02c12083          	lw	ra,44(sp)
    1b78:	02812403          	lw	s0,40(sp)
    1b7c:	02412483          	lw	s1,36(sp)
    1b80:	02012903          	lw	s2,32(sp)
    1b84:	01c12983          	lw	s3,28(sp)
    1b88:	01812a03          	lw	s4,24(sp)
    1b8c:	01412a83          	lw	s5,20(sp)
    1b90:	01012b03          	lw	s6,16(sp)
    1b94:	00c12b83          	lw	s7,12(sp)
    1b98:	00812c03          	lw	s8,8(sp)
    1b9c:	00412c83          	lw	s9,4(sp)
    1ba0:	03010113          	add	sp,sp,48
    1ba4:	00008067          	ret
    1ba8:	ff87f493          	and	s1,a5,-8
    1bac:	1807c463          	bltz	a5,1d34 <_malloc_r+0x264>
    1bb0:	18b4e263          	bltu	s1,a1,1d34 <_malloc_r+0x264>
    1bb4:	251000ef          	jal	2604 <__malloc_lock>
    1bb8:	1f700793          	li	a5,503
    1bbc:	3a97f863          	bgeu	a5,s1,1f6c <_malloc_r+0x49c>
    1bc0:	0094d793          	srl	a5,s1,0x9
    1bc4:	18078063          	beqz	a5,1d44 <_malloc_r+0x274>
    1bc8:	00400713          	li	a4,4
    1bcc:	2ef76e63          	bltu	a4,a5,1ec8 <_malloc_r+0x3f8>
    1bd0:	0064d793          	srl	a5,s1,0x6
    1bd4:	03978593          	add	a1,a5,57
    1bd8:	03878513          	add	a0,a5,56
    1bdc:	00359693          	sll	a3,a1,0x3
    1be0:	0001f997          	auipc	s3,0x1f
    1be4:	50098993          	add	s3,s3,1280 # 210e0 <__malloc_av_>
    1be8:	00d986b3          	add	a3,s3,a3
    1bec:	0046a403          	lw	s0,4(a3)
    1bf0:	ff868693          	add	a3,a3,-8
    1bf4:	02868663          	beq	a3,s0,1c20 <_malloc_r+0x150>
    1bf8:	00f00613          	li	a2,15
    1bfc:	0100006f          	j	1c0c <_malloc_r+0x13c>
    1c00:	24075663          	bgez	a4,1e4c <_malloc_r+0x37c>
    1c04:	00c42403          	lw	s0,12(s0)
    1c08:	00868c63          	beq	a3,s0,1c20 <_malloc_r+0x150>
    1c0c:	00442783          	lw	a5,4(s0)
    1c10:	ffc7f793          	and	a5,a5,-4
    1c14:	40978733          	sub	a4,a5,s1
    1c18:	fee654e3          	bge	a2,a4,1c00 <_malloc_r+0x130>
    1c1c:	00050593          	mv	a1,a0
    1c20:	0109a403          	lw	s0,16(s3)
    1c24:	0001f897          	auipc	a7,0x1f
    1c28:	4c488893          	add	a7,a7,1220 # 210e8 <__malloc_av_+0x8>
    1c2c:	1f140863          	beq	s0,a7,1e1c <_malloc_r+0x34c>
    1c30:	00442783          	lw	a5,4(s0)
    1c34:	00f00693          	li	a3,15
    1c38:	ffc7f793          	and	a5,a5,-4
    1c3c:	40978733          	sub	a4,a5,s1
    1c40:	32e6cc63          	blt	a3,a4,1f78 <_malloc_r+0x4a8>
    1c44:	0119aa23          	sw	a7,20(s3)
    1c48:	0119a823          	sw	a7,16(s3)
    1c4c:	30075063          	bgez	a4,1f4c <_malloc_r+0x47c>
    1c50:	1ff00713          	li	a4,511
    1c54:	0049a503          	lw	a0,4(s3)
    1c58:	20f76863          	bltu	a4,a5,1e68 <_malloc_r+0x398>
    1c5c:	ff87f713          	and	a4,a5,-8
    1c60:	00870713          	add	a4,a4,8
    1c64:	00e98733          	add	a4,s3,a4
    1c68:	00072683          	lw	a3,0(a4)
    1c6c:	0057d613          	srl	a2,a5,0x5
    1c70:	00100793          	li	a5,1
    1c74:	00c797b3          	sll	a5,a5,a2
    1c78:	00f56533          	or	a0,a0,a5
    1c7c:	ff870793          	add	a5,a4,-8
    1c80:	00f42623          	sw	a5,12(s0)
    1c84:	00d42423          	sw	a3,8(s0)
    1c88:	00a9a223          	sw	a0,4(s3)
    1c8c:	00872023          	sw	s0,0(a4)
    1c90:	0086a623          	sw	s0,12(a3)
    1c94:	4025d793          	sra	a5,a1,0x2
    1c98:	00100613          	li	a2,1
    1c9c:	00f61633          	sll	a2,a2,a5
    1ca0:	0ac56a63          	bltu	a0,a2,1d54 <_malloc_r+0x284>
    1ca4:	00a677b3          	and	a5,a2,a0
    1ca8:	02079463          	bnez	a5,1cd0 <_malloc_r+0x200>
    1cac:	00161613          	sll	a2,a2,0x1
    1cb0:	ffc5f593          	and	a1,a1,-4
    1cb4:	00a677b3          	and	a5,a2,a0
    1cb8:	00458593          	add	a1,a1,4
    1cbc:	00079a63          	bnez	a5,1cd0 <_malloc_r+0x200>
    1cc0:	00161613          	sll	a2,a2,0x1
    1cc4:	00a677b3          	and	a5,a2,a0
    1cc8:	00458593          	add	a1,a1,4
    1ccc:	fe078ae3          	beqz	a5,1cc0 <_malloc_r+0x1f0>
    1cd0:	00f00813          	li	a6,15
    1cd4:	00359313          	sll	t1,a1,0x3
    1cd8:	00698333          	add	t1,s3,t1
    1cdc:	00030513          	mv	a0,t1
    1ce0:	00c52783          	lw	a5,12(a0)
    1ce4:	00058e13          	mv	t3,a1
    1ce8:	20f50263          	beq	a0,a5,1eec <_malloc_r+0x41c>
    1cec:	0047a703          	lw	a4,4(a5)
    1cf0:	00078413          	mv	s0,a5
    1cf4:	00c7a783          	lw	a5,12(a5)
    1cf8:	ffc77713          	and	a4,a4,-4
    1cfc:	409706b3          	sub	a3,a4,s1
    1d00:	20d84263          	blt	a6,a3,1f04 <_malloc_r+0x434>
    1d04:	fe06c2e3          	bltz	a3,1ce8 <_malloc_r+0x218>
    1d08:	00e40733          	add	a4,s0,a4
    1d0c:	00472683          	lw	a3,4(a4)
    1d10:	00842603          	lw	a2,8(s0)
    1d14:	00090513          	mv	a0,s2
    1d18:	0016e693          	or	a3,a3,1
    1d1c:	00d72223          	sw	a3,4(a4)
    1d20:	00f62623          	sw	a5,12(a2)
    1d24:	00c7a423          	sw	a2,8(a5)
    1d28:	0e1000ef          	jal	2608 <__malloc_unlock>
    1d2c:	00840513          	add	a0,s0,8
    1d30:	e45ff06f          	j	1b74 <_malloc_r+0xa4>
    1d34:	00c00793          	li	a5,12
    1d38:	00f92023          	sw	a5,0(s2)
    1d3c:	00000513          	li	a0,0
    1d40:	e35ff06f          	j	1b74 <_malloc_r+0xa4>
    1d44:	20000693          	li	a3,512
    1d48:	04000593          	li	a1,64
    1d4c:	03f00513          	li	a0,63
    1d50:	e91ff06f          	j	1be0 <_malloc_r+0x110>
    1d54:	0089a403          	lw	s0,8(s3)
    1d58:	00442783          	lw	a5,4(s0)
    1d5c:	ffc7fb13          	and	s6,a5,-4
    1d60:	009b6863          	bltu	s6,s1,1d70 <_malloc_r+0x2a0>
    1d64:	409b0733          	sub	a4,s6,s1
    1d68:	00f00793          	li	a5,15
    1d6c:	0ae7cc63          	blt	a5,a4,1e24 <_malloc_r+0x354>
    1d70:	00020c97          	auipc	s9,0x20
    1d74:	8ecc8c93          	add	s9,s9,-1812 # 2165c <__malloc_sbrk_base>
    1d78:	000ca703          	lw	a4,0(s9)
    1d7c:	89c1aa83          	lw	s5,-1892(gp) # 216f4 <__malloc_top_pad>
    1d80:	fff00793          	li	a5,-1
    1d84:	01640a33          	add	s4,s0,s6
    1d88:	01548ab3          	add	s5,s1,s5
    1d8c:	3af70c63          	beq	a4,a5,2144 <_malloc_r+0x674>
    1d90:	000017b7          	lui	a5,0x1
    1d94:	00f78793          	add	a5,a5,15 # 100f <ee_printf+0x69f>
    1d98:	00fa8ab3          	add	s5,s5,a5
    1d9c:	fffff7b7          	lui	a5,0xfffff
    1da0:	00fafab3          	and	s5,s5,a5
    1da4:	000a8593          	mv	a1,s5
    1da8:	00090513          	mv	a0,s2
    1dac:	2ed010ef          	jal	3898 <_sbrk_r>
    1db0:	fff00793          	li	a5,-1
    1db4:	00050b93          	mv	s7,a0
    1db8:	20f50a63          	beq	a0,a5,1fcc <_malloc_r+0x4fc>
    1dbc:	21456663          	bltu	a0,s4,1fc8 <_malloc_r+0x4f8>
    1dc0:	00022c17          	auipc	s8,0x22
    1dc4:	118c0c13          	add	s8,s8,280 # 23ed8 <__malloc_current_mallinfo>
    1dc8:	000c2583          	lw	a1,0(s8)
    1dcc:	00ba85b3          	add	a1,s5,a1
    1dd0:	00bc2023          	sw	a1,0(s8)
    1dd4:	00058713          	mv	a4,a1
    1dd8:	28aa1c63          	bne	s4,a0,2070 <_malloc_r+0x5a0>
    1ddc:	01451793          	sll	a5,a0,0x14
    1de0:	28079863          	bnez	a5,2070 <_malloc_r+0x5a0>
    1de4:	0089ab83          	lw	s7,8(s3)
    1de8:	015b07b3          	add	a5,s6,s5
    1dec:	0017e793          	or	a5,a5,1
    1df0:	00fba223          	sw	a5,4(s7)
    1df4:	89818713          	add	a4,gp,-1896 # 216f0 <__malloc_max_sbrked_mem>
    1df8:	00072683          	lw	a3,0(a4)
    1dfc:	00b6f463          	bgeu	a3,a1,1e04 <_malloc_r+0x334>
    1e00:	00b72023          	sw	a1,0(a4)
    1e04:	89418713          	add	a4,gp,-1900 # 216ec <__malloc_max_total_mem>
    1e08:	00072683          	lw	a3,0(a4)
    1e0c:	00b6f463          	bgeu	a3,a1,1e14 <_malloc_r+0x344>
    1e10:	00b72023          	sw	a1,0(a4)
    1e14:	000b8413          	mv	s0,s7
    1e18:	1bc0006f          	j	1fd4 <_malloc_r+0x504>
    1e1c:	0049a503          	lw	a0,4(s3)
    1e20:	e75ff06f          	j	1c94 <_malloc_r+0x1c4>
    1e24:	0014e793          	or	a5,s1,1
    1e28:	00f42223          	sw	a5,4(s0)
    1e2c:	009404b3          	add	s1,s0,s1
    1e30:	0099a423          	sw	s1,8(s3)
    1e34:	00176713          	or	a4,a4,1
    1e38:	00090513          	mv	a0,s2
    1e3c:	00e4a223          	sw	a4,4(s1) # 400004 <__freertos_irq_stack_top+0x3d0004>
    1e40:	7c8000ef          	jal	2608 <__malloc_unlock>
    1e44:	00840513          	add	a0,s0,8
    1e48:	d2dff06f          	j	1b74 <_malloc_r+0xa4>
    1e4c:	00c42683          	lw	a3,12(s0)
    1e50:	00842603          	lw	a2,8(s0)
    1e54:	cfdff06f          	j	1b50 <_malloc_r+0x80>
    1e58:	00c7a403          	lw	s0,12(a5) # fffff00c <__freertos_irq_stack_top+0xfffcf00c>
    1e5c:	00258593          	add	a1,a1,2
    1e60:	dc8780e3          	beq	a5,s0,1c20 <_malloc_r+0x150>
    1e64:	cddff06f          	j	1b40 <_malloc_r+0x70>
    1e68:	0097d713          	srl	a4,a5,0x9
    1e6c:	00400693          	li	a3,4
    1e70:	14e6f263          	bgeu	a3,a4,1fb4 <_malloc_r+0x4e4>
    1e74:	01400693          	li	a3,20
    1e78:	30e6ec63          	bltu	a3,a4,2190 <_malloc_r+0x6c0>
    1e7c:	05c70613          	add	a2,a4,92
    1e80:	05b70693          	add	a3,a4,91
    1e84:	00361613          	sll	a2,a2,0x3
    1e88:	00c98633          	add	a2,s3,a2
    1e8c:	00062703          	lw	a4,0(a2)
    1e90:	ff860613          	add	a2,a2,-8
    1e94:	00e61863          	bne	a2,a4,1ea4 <_malloc_r+0x3d4>
    1e98:	2b40006f          	j	214c <_malloc_r+0x67c>
    1e9c:	00872703          	lw	a4,8(a4)
    1ea0:	00e60863          	beq	a2,a4,1eb0 <_malloc_r+0x3e0>
    1ea4:	00472683          	lw	a3,4(a4)
    1ea8:	ffc6f693          	and	a3,a3,-4
    1eac:	fed7e8e3          	bltu	a5,a3,1e9c <_malloc_r+0x3cc>
    1eb0:	00c72603          	lw	a2,12(a4)
    1eb4:	00c42623          	sw	a2,12(s0)
    1eb8:	00e42423          	sw	a4,8(s0)
    1ebc:	00862423          	sw	s0,8(a2)
    1ec0:	00872623          	sw	s0,12(a4)
    1ec4:	dd1ff06f          	j	1c94 <_malloc_r+0x1c4>
    1ec8:	01400713          	li	a4,20
    1ecc:	12f77663          	bgeu	a4,a5,1ff8 <_malloc_r+0x528>
    1ed0:	05400713          	li	a4,84
    1ed4:	2cf76c63          	bltu	a4,a5,21ac <_malloc_r+0x6dc>
    1ed8:	00c4d793          	srl	a5,s1,0xc
    1edc:	06f78593          	add	a1,a5,111
    1ee0:	06e78513          	add	a0,a5,110
    1ee4:	00359693          	sll	a3,a1,0x3
    1ee8:	cf9ff06f          	j	1be0 <_malloc_r+0x110>
    1eec:	001e0e13          	add	t3,t3,1
    1ef0:	003e7793          	and	a5,t3,3
    1ef4:	00850513          	add	a0,a0,8
    1ef8:	10078e63          	beqz	a5,2014 <_malloc_r+0x544>
    1efc:	00c52783          	lw	a5,12(a0)
    1f00:	de9ff06f          	j	1ce8 <_malloc_r+0x218>
    1f04:	00842603          	lw	a2,8(s0)
    1f08:	0014e593          	or	a1,s1,1
    1f0c:	00b42223          	sw	a1,4(s0)
    1f10:	00f62623          	sw	a5,12(a2)
    1f14:	00c7a423          	sw	a2,8(a5)
    1f18:	009404b3          	add	s1,s0,s1
    1f1c:	0099aa23          	sw	s1,20(s3)
    1f20:	0099a823          	sw	s1,16(s3)
    1f24:	0016e793          	or	a5,a3,1
    1f28:	0114a623          	sw	a7,12(s1)
    1f2c:	0114a423          	sw	a7,8(s1)
    1f30:	00f4a223          	sw	a5,4(s1)
    1f34:	00e40733          	add	a4,s0,a4
    1f38:	00090513          	mv	a0,s2
    1f3c:	00d72023          	sw	a3,0(a4)
    1f40:	6c8000ef          	jal	2608 <__malloc_unlock>
    1f44:	00840513          	add	a0,s0,8
    1f48:	c2dff06f          	j	1b74 <_malloc_r+0xa4>
    1f4c:	00f407b3          	add	a5,s0,a5
    1f50:	0047a703          	lw	a4,4(a5)
    1f54:	00090513          	mv	a0,s2
    1f58:	00176713          	or	a4,a4,1
    1f5c:	00e7a223          	sw	a4,4(a5)
    1f60:	6a8000ef          	jal	2608 <__malloc_unlock>
    1f64:	00840513          	add	a0,s0,8
    1f68:	c0dff06f          	j	1b74 <_malloc_r+0xa4>
    1f6c:	0034d593          	srl	a1,s1,0x3
    1f70:	00848793          	add	a5,s1,8
    1f74:	bb5ff06f          	j	1b28 <_malloc_r+0x58>
    1f78:	0014e693          	or	a3,s1,1
    1f7c:	00d42223          	sw	a3,4(s0)
    1f80:	009404b3          	add	s1,s0,s1
    1f84:	0099aa23          	sw	s1,20(s3)
    1f88:	0099a823          	sw	s1,16(s3)
    1f8c:	00176693          	or	a3,a4,1
    1f90:	0114a623          	sw	a7,12(s1)
    1f94:	0114a423          	sw	a7,8(s1)
    1f98:	00d4a223          	sw	a3,4(s1)
    1f9c:	00f407b3          	add	a5,s0,a5
    1fa0:	00090513          	mv	a0,s2
    1fa4:	00e7a023          	sw	a4,0(a5)
    1fa8:	660000ef          	jal	2608 <__malloc_unlock>
    1fac:	00840513          	add	a0,s0,8
    1fb0:	bc5ff06f          	j	1b74 <_malloc_r+0xa4>
    1fb4:	0067d713          	srl	a4,a5,0x6
    1fb8:	03970613          	add	a2,a4,57
    1fbc:	03870693          	add	a3,a4,56
    1fc0:	00361613          	sll	a2,a2,0x3
    1fc4:	ec5ff06f          	j	1e88 <_malloc_r+0x3b8>
    1fc8:	09340a63          	beq	s0,s3,205c <_malloc_r+0x58c>
    1fcc:	0089a403          	lw	s0,8(s3)
    1fd0:	00442783          	lw	a5,4(s0)
    1fd4:	ffc7f793          	and	a5,a5,-4
    1fd8:	40978733          	sub	a4,a5,s1
    1fdc:	0097e663          	bltu	a5,s1,1fe8 <_malloc_r+0x518>
    1fe0:	00f00793          	li	a5,15
    1fe4:	e4e7c0e3          	blt	a5,a4,1e24 <_malloc_r+0x354>
    1fe8:	00090513          	mv	a0,s2
    1fec:	61c000ef          	jal	2608 <__malloc_unlock>
    1ff0:	00000513          	li	a0,0
    1ff4:	b81ff06f          	j	1b74 <_malloc_r+0xa4>
    1ff8:	05c78593          	add	a1,a5,92
    1ffc:	05b78513          	add	a0,a5,91
    2000:	00359693          	sll	a3,a1,0x3
    2004:	bddff06f          	j	1be0 <_malloc_r+0x110>
    2008:	00832783          	lw	a5,8(t1)
    200c:	fff58593          	add	a1,a1,-1
    2010:	24679863          	bne	a5,t1,2260 <_malloc_r+0x790>
    2014:	0035f793          	and	a5,a1,3
    2018:	ff830313          	add	t1,t1,-8
    201c:	fe0796e3          	bnez	a5,2008 <_malloc_r+0x538>
    2020:	0049a703          	lw	a4,4(s3)
    2024:	fff64793          	not	a5,a2
    2028:	00e7f7b3          	and	a5,a5,a4
    202c:	00f9a223          	sw	a5,4(s3)
    2030:	00161613          	sll	a2,a2,0x1
    2034:	d2c7e0e3          	bltu	a5,a2,1d54 <_malloc_r+0x284>
    2038:	d0060ee3          	beqz	a2,1d54 <_malloc_r+0x284>
    203c:	00f67733          	and	a4,a2,a5
    2040:	00071a63          	bnez	a4,2054 <_malloc_r+0x584>
    2044:	00161613          	sll	a2,a2,0x1
    2048:	00f67733          	and	a4,a2,a5
    204c:	004e0e13          	add	t3,t3,4
    2050:	fe070ae3          	beqz	a4,2044 <_malloc_r+0x574>
    2054:	000e0593          	mv	a1,t3
    2058:	c7dff06f          	j	1cd4 <_malloc_r+0x204>
    205c:	00022c17          	auipc	s8,0x22
    2060:	e7cc0c13          	add	s8,s8,-388 # 23ed8 <__malloc_current_mallinfo>
    2064:	000c2703          	lw	a4,0(s8)
    2068:	00ea8733          	add	a4,s5,a4
    206c:	00ec2023          	sw	a4,0(s8)
    2070:	000ca683          	lw	a3,0(s9)
    2074:	fff00793          	li	a5,-1
    2078:	14f68863          	beq	a3,a5,21c8 <_malloc_r+0x6f8>
    207c:	414b87b3          	sub	a5,s7,s4
    2080:	00e787b3          	add	a5,a5,a4
    2084:	00fc2023          	sw	a5,0(s8)
    2088:	007bfc93          	and	s9,s7,7
    208c:	0c0c8c63          	beqz	s9,2164 <_malloc_r+0x694>
    2090:	00001737          	lui	a4,0x1
    2094:	419b8bb3          	sub	s7,s7,s9
    2098:	00870593          	add	a1,a4,8 # 1008 <ee_printf+0x698>
    209c:	008b8b93          	add	s7,s7,8
    20a0:	419585b3          	sub	a1,a1,s9
    20a4:	015b8ab3          	add	s5,s7,s5
    20a8:	415585b3          	sub	a1,a1,s5
    20ac:	fff70713          	add	a4,a4,-1
    20b0:	00e5fa33          	and	s4,a1,a4
    20b4:	000a0593          	mv	a1,s4
    20b8:	00090513          	mv	a0,s2
    20bc:	7dc010ef          	jal	3898 <_sbrk_r>
    20c0:	fff00793          	li	a5,-1
    20c4:	14f50863          	beq	a0,a5,2214 <_malloc_r+0x744>
    20c8:	41750533          	sub	a0,a0,s7
    20cc:	01450ab3          	add	s5,a0,s4
    20d0:	000c2703          	lw	a4,0(s8)
    20d4:	0179a423          	sw	s7,8(s3)
    20d8:	001ae793          	or	a5,s5,1
    20dc:	00ea05b3          	add	a1,s4,a4
    20e0:	00bc2023          	sw	a1,0(s8)
    20e4:	00fba223          	sw	a5,4(s7)
    20e8:	d13406e3          	beq	s0,s3,1df4 <_malloc_r+0x324>
    20ec:	00f00693          	li	a3,15
    20f0:	0f66f063          	bgeu	a3,s6,21d0 <_malloc_r+0x700>
    20f4:	00442703          	lw	a4,4(s0)
    20f8:	ff4b0793          	add	a5,s6,-12
    20fc:	ff87f793          	and	a5,a5,-8
    2100:	00177713          	and	a4,a4,1
    2104:	00f76733          	or	a4,a4,a5
    2108:	00e42223          	sw	a4,4(s0)
    210c:	00500613          	li	a2,5
    2110:	00f40733          	add	a4,s0,a5
    2114:	00c72223          	sw	a2,4(a4)
    2118:	00c72423          	sw	a2,8(a4)
    211c:	00f6e663          	bltu	a3,a5,2128 <_malloc_r+0x658>
    2120:	004ba783          	lw	a5,4(s7)
    2124:	cd1ff06f          	j	1df4 <_malloc_r+0x324>
    2128:	00840593          	add	a1,s0,8
    212c:	00090513          	mv	a0,s2
    2130:	614030ef          	jal	5744 <_free_r>
    2134:	0089ab83          	lw	s7,8(s3)
    2138:	000c2583          	lw	a1,0(s8)
    213c:	004ba783          	lw	a5,4(s7)
    2140:	cb5ff06f          	j	1df4 <_malloc_r+0x324>
    2144:	010a8a93          	add	s5,s5,16
    2148:	c5dff06f          	j	1da4 <_malloc_r+0x2d4>
    214c:	4026d693          	sra	a3,a3,0x2
    2150:	00100793          	li	a5,1
    2154:	00d797b3          	sll	a5,a5,a3
    2158:	00f56533          	or	a0,a0,a5
    215c:	00a9a223          	sw	a0,4(s3)
    2160:	d55ff06f          	j	1eb4 <_malloc_r+0x3e4>
    2164:	015b85b3          	add	a1,s7,s5
    2168:	40b005b3          	neg	a1,a1
    216c:	01459593          	sll	a1,a1,0x14
    2170:	0145da13          	srl	s4,a1,0x14
    2174:	000a0593          	mv	a1,s4
    2178:	00090513          	mv	a0,s2
    217c:	71c010ef          	jal	3898 <_sbrk_r>
    2180:	fff00793          	li	a5,-1
    2184:	f4f512e3          	bne	a0,a5,20c8 <_malloc_r+0x5f8>
    2188:	00000a13          	li	s4,0
    218c:	f45ff06f          	j	20d0 <_malloc_r+0x600>
    2190:	05400693          	li	a3,84
    2194:	04e6e463          	bltu	a3,a4,21dc <_malloc_r+0x70c>
    2198:	00c7d713          	srl	a4,a5,0xc
    219c:	06f70613          	add	a2,a4,111
    21a0:	06e70693          	add	a3,a4,110
    21a4:	00361613          	sll	a2,a2,0x3
    21a8:	ce1ff06f          	j	1e88 <_malloc_r+0x3b8>
    21ac:	15400713          	li	a4,340
    21b0:	04f76463          	bltu	a4,a5,21f8 <_malloc_r+0x728>
    21b4:	00f4d793          	srl	a5,s1,0xf
    21b8:	07878593          	add	a1,a5,120
    21bc:	07778513          	add	a0,a5,119
    21c0:	00359693          	sll	a3,a1,0x3
    21c4:	a1dff06f          	j	1be0 <_malloc_r+0x110>
    21c8:	017ca023          	sw	s7,0(s9)
    21cc:	ebdff06f          	j	2088 <_malloc_r+0x5b8>
    21d0:	00100793          	li	a5,1
    21d4:	00fba223          	sw	a5,4(s7)
    21d8:	e11ff06f          	j	1fe8 <_malloc_r+0x518>
    21dc:	15400693          	li	a3,340
    21e0:	04e6e463          	bltu	a3,a4,2228 <_malloc_r+0x758>
    21e4:	00f7d713          	srl	a4,a5,0xf
    21e8:	07870613          	add	a2,a4,120
    21ec:	07770693          	add	a3,a4,119
    21f0:	00361613          	sll	a2,a2,0x3
    21f4:	c95ff06f          	j	1e88 <_malloc_r+0x3b8>
    21f8:	55400713          	li	a4,1364
    21fc:	04f76463          	bltu	a4,a5,2244 <_malloc_r+0x774>
    2200:	0124d793          	srl	a5,s1,0x12
    2204:	07d78593          	add	a1,a5,125
    2208:	07c78513          	add	a0,a5,124
    220c:	00359693          	sll	a3,a1,0x3
    2210:	9d1ff06f          	j	1be0 <_malloc_r+0x110>
    2214:	ff8c8c93          	add	s9,s9,-8
    2218:	019a8ab3          	add	s5,s5,s9
    221c:	417a8ab3          	sub	s5,s5,s7
    2220:	00000a13          	li	s4,0
    2224:	eadff06f          	j	20d0 <_malloc_r+0x600>
    2228:	55400693          	li	a3,1364
    222c:	02e6e463          	bltu	a3,a4,2254 <_malloc_r+0x784>
    2230:	0127d713          	srl	a4,a5,0x12
    2234:	07d70613          	add	a2,a4,125
    2238:	07c70693          	add	a3,a4,124
    223c:	00361613          	sll	a2,a2,0x3
    2240:	c49ff06f          	j	1e88 <_malloc_r+0x3b8>
    2244:	3f800693          	li	a3,1016
    2248:	07f00593          	li	a1,127
    224c:	07e00513          	li	a0,126
    2250:	991ff06f          	j	1be0 <_malloc_r+0x110>
    2254:	3f800613          	li	a2,1016
    2258:	07e00693          	li	a3,126
    225c:	c2dff06f          	j	1e88 <_malloc_r+0x3b8>
    2260:	0049a783          	lw	a5,4(s3)
    2264:	dcdff06f          	j	2030 <_malloc_r+0x560>

00002268 <memcpy>:
    2268:	00b547b3          	xor	a5,a0,a1
    226c:	0037f793          	and	a5,a5,3
    2270:	00c508b3          	add	a7,a0,a2
    2274:	06079463          	bnez	a5,22dc <memcpy+0x74>
    2278:	00300793          	li	a5,3
    227c:	06c7f063          	bgeu	a5,a2,22dc <memcpy+0x74>
    2280:	00357793          	and	a5,a0,3
    2284:	00050713          	mv	a4,a0
    2288:	06079a63          	bnez	a5,22fc <memcpy+0x94>
    228c:	ffc8f613          	and	a2,a7,-4
    2290:	40e606b3          	sub	a3,a2,a4
    2294:	02000793          	li	a5,32
    2298:	08d7ce63          	blt	a5,a3,2334 <memcpy+0xcc>
    229c:	00058693          	mv	a3,a1
    22a0:	00070793          	mv	a5,a4
    22a4:	02c77863          	bgeu	a4,a2,22d4 <memcpy+0x6c>
    22a8:	0006a803          	lw	a6,0(a3)
    22ac:	00478793          	add	a5,a5,4
    22b0:	00468693          	add	a3,a3,4
    22b4:	ff07ae23          	sw	a6,-4(a5)
    22b8:	fec7e8e3          	bltu	a5,a2,22a8 <memcpy+0x40>
    22bc:	fff60793          	add	a5,a2,-1
    22c0:	40e787b3          	sub	a5,a5,a4
    22c4:	ffc7f793          	and	a5,a5,-4
    22c8:	00478793          	add	a5,a5,4
    22cc:	00f70733          	add	a4,a4,a5
    22d0:	00f585b3          	add	a1,a1,a5
    22d4:	01176863          	bltu	a4,a7,22e4 <memcpy+0x7c>
    22d8:	00008067          	ret
    22dc:	00050713          	mv	a4,a0
    22e0:	05157863          	bgeu	a0,a7,2330 <memcpy+0xc8>
    22e4:	0005c783          	lbu	a5,0(a1)
    22e8:	00170713          	add	a4,a4,1
    22ec:	00158593          	add	a1,a1,1
    22f0:	fef70fa3          	sb	a5,-1(a4)
    22f4:	fee898e3          	bne	a7,a4,22e4 <memcpy+0x7c>
    22f8:	00008067          	ret
    22fc:	0005c683          	lbu	a3,0(a1)
    2300:	00170713          	add	a4,a4,1
    2304:	00377793          	and	a5,a4,3
    2308:	fed70fa3          	sb	a3,-1(a4)
    230c:	00158593          	add	a1,a1,1
    2310:	f6078ee3          	beqz	a5,228c <memcpy+0x24>
    2314:	0005c683          	lbu	a3,0(a1)
    2318:	00170713          	add	a4,a4,1
    231c:	00377793          	and	a5,a4,3
    2320:	fed70fa3          	sb	a3,-1(a4)
    2324:	00158593          	add	a1,a1,1
    2328:	fc079ae3          	bnez	a5,22fc <memcpy+0x94>
    232c:	f61ff06f          	j	228c <memcpy+0x24>
    2330:	00008067          	ret
    2334:	ff010113          	add	sp,sp,-16
    2338:	00812623          	sw	s0,12(sp)
    233c:	02000413          	li	s0,32
    2340:	0005a383          	lw	t2,0(a1)
    2344:	0045a283          	lw	t0,4(a1)
    2348:	0085af83          	lw	t6,8(a1)
    234c:	00c5af03          	lw	t5,12(a1)
    2350:	0105ae83          	lw	t4,16(a1)
    2354:	0145ae03          	lw	t3,20(a1)
    2358:	0185a303          	lw	t1,24(a1)
    235c:	01c5a803          	lw	a6,28(a1)
    2360:	0205a683          	lw	a3,32(a1)
    2364:	02470713          	add	a4,a4,36
    2368:	40e607b3          	sub	a5,a2,a4
    236c:	fc772e23          	sw	t2,-36(a4)
    2370:	fe572023          	sw	t0,-32(a4)
    2374:	fff72223          	sw	t6,-28(a4)
    2378:	ffe72423          	sw	t5,-24(a4)
    237c:	ffd72623          	sw	t4,-20(a4)
    2380:	ffc72823          	sw	t3,-16(a4)
    2384:	fe672a23          	sw	t1,-12(a4)
    2388:	ff072c23          	sw	a6,-8(a4)
    238c:	fed72e23          	sw	a3,-4(a4)
    2390:	02458593          	add	a1,a1,36
    2394:	faf446e3          	blt	s0,a5,2340 <memcpy+0xd8>
    2398:	00058693          	mv	a3,a1
    239c:	00070793          	mv	a5,a4
    23a0:	02c77863          	bgeu	a4,a2,23d0 <memcpy+0x168>
    23a4:	0006a803          	lw	a6,0(a3)
    23a8:	00478793          	add	a5,a5,4
    23ac:	00468693          	add	a3,a3,4
    23b0:	ff07ae23          	sw	a6,-4(a5)
    23b4:	fec7e8e3          	bltu	a5,a2,23a4 <memcpy+0x13c>
    23b8:	fff60793          	add	a5,a2,-1
    23bc:	40e787b3          	sub	a5,a5,a4
    23c0:	ffc7f793          	and	a5,a5,-4
    23c4:	00478793          	add	a5,a5,4
    23c8:	00f70733          	add	a4,a4,a5
    23cc:	00f585b3          	add	a1,a1,a5
    23d0:	01176863          	bltu	a4,a7,23e0 <memcpy+0x178>
    23d4:	00c12403          	lw	s0,12(sp)
    23d8:	01010113          	add	sp,sp,16
    23dc:	00008067          	ret
    23e0:	0005c783          	lbu	a5,0(a1)
    23e4:	00170713          	add	a4,a4,1
    23e8:	00158593          	add	a1,a1,1
    23ec:	fef70fa3          	sb	a5,-1(a4)
    23f0:	fee882e3          	beq	a7,a4,23d4 <memcpy+0x16c>
    23f4:	0005c783          	lbu	a5,0(a1)
    23f8:	00170713          	add	a4,a4,1
    23fc:	00158593          	add	a1,a1,1
    2400:	fef70fa3          	sb	a5,-1(a4)
    2404:	fce89ee3          	bne	a7,a4,23e0 <memcpy+0x178>
    2408:	fcdff06f          	j	23d4 <memcpy+0x16c>

0000240c <memmove>:
    240c:	02a5f663          	bgeu	a1,a0,2438 <memmove+0x2c>
    2410:	00c58733          	add	a4,a1,a2
    2414:	02e57263          	bgeu	a0,a4,2438 <memmove+0x2c>
    2418:	00c507b3          	add	a5,a0,a2
    241c:	04060663          	beqz	a2,2468 <memmove+0x5c>
    2420:	fff74683          	lbu	a3,-1(a4)
    2424:	fff78793          	add	a5,a5,-1
    2428:	fff70713          	add	a4,a4,-1
    242c:	00d78023          	sb	a3,0(a5)
    2430:	fef518e3          	bne	a0,a5,2420 <memmove+0x14>
    2434:	00008067          	ret
    2438:	00f00793          	li	a5,15
    243c:	02c7e863          	bltu	a5,a2,246c <memmove+0x60>
    2440:	00050793          	mv	a5,a0
    2444:	fff60693          	add	a3,a2,-1
    2448:	0c060a63          	beqz	a2,251c <memmove+0x110>
    244c:	00168693          	add	a3,a3,1
    2450:	00d786b3          	add	a3,a5,a3
    2454:	0005c703          	lbu	a4,0(a1)
    2458:	00178793          	add	a5,a5,1
    245c:	00158593          	add	a1,a1,1
    2460:	fee78fa3          	sb	a4,-1(a5)
    2464:	fed798e3          	bne	a5,a3,2454 <memmove+0x48>
    2468:	00008067          	ret
    246c:	00b567b3          	or	a5,a0,a1
    2470:	0037f793          	and	a5,a5,3
    2474:	08079e63          	bnez	a5,2510 <memmove+0x104>
    2478:	ff060893          	add	a7,a2,-16
    247c:	ff08f893          	and	a7,a7,-16
    2480:	01088893          	add	a7,a7,16
    2484:	011507b3          	add	a5,a0,a7
    2488:	00058693          	mv	a3,a1
    248c:	00050713          	mv	a4,a0
    2490:	0006a803          	lw	a6,0(a3)
    2494:	01068693          	add	a3,a3,16
    2498:	01070713          	add	a4,a4,16
    249c:	ff072823          	sw	a6,-16(a4)
    24a0:	ff46a803          	lw	a6,-12(a3)
    24a4:	ff072a23          	sw	a6,-12(a4)
    24a8:	ff86a803          	lw	a6,-8(a3)
    24ac:	ff072c23          	sw	a6,-8(a4)
    24b0:	ffc6a803          	lw	a6,-4(a3)
    24b4:	ff072e23          	sw	a6,-4(a4)
    24b8:	fcf71ce3          	bne	a4,a5,2490 <memmove+0x84>
    24bc:	00c67713          	and	a4,a2,12
    24c0:	011585b3          	add	a1,a1,a7
    24c4:	00f67813          	and	a6,a2,15
    24c8:	04070c63          	beqz	a4,2520 <memmove+0x114>
    24cc:	00058693          	mv	a3,a1
    24d0:	00078713          	mv	a4,a5
    24d4:	01078eb3          	add	t4,a5,a6
    24d8:	00300e13          	li	t3,3
    24dc:	0006a303          	lw	t1,0(a3)
    24e0:	00470713          	add	a4,a4,4
    24e4:	40ee88b3          	sub	a7,t4,a4
    24e8:	fe672e23          	sw	t1,-4(a4)
    24ec:	00468693          	add	a3,a3,4
    24f0:	ff1e66e3          	bltu	t3,a7,24dc <memmove+0xd0>
    24f4:	ffc80713          	add	a4,a6,-4
    24f8:	ffc77713          	and	a4,a4,-4
    24fc:	00470713          	add	a4,a4,4
    2500:	00367613          	and	a2,a2,3
    2504:	00e787b3          	add	a5,a5,a4
    2508:	00e585b3          	add	a1,a1,a4
    250c:	f39ff06f          	j	2444 <memmove+0x38>
    2510:	fff60693          	add	a3,a2,-1
    2514:	00050793          	mv	a5,a0
    2518:	f35ff06f          	j	244c <memmove+0x40>
    251c:	00008067          	ret
    2520:	00080613          	mv	a2,a6
    2524:	f21ff06f          	j	2444 <memmove+0x38>

00002528 <memset>:
    2528:	00f00313          	li	t1,15
    252c:	00050713          	mv	a4,a0
    2530:	02c37e63          	bgeu	t1,a2,256c <memset+0x44>
    2534:	00f77793          	and	a5,a4,15
    2538:	0a079063          	bnez	a5,25d8 <memset+0xb0>
    253c:	08059263          	bnez	a1,25c0 <memset+0x98>
    2540:	ff067693          	and	a3,a2,-16
    2544:	00f67613          	and	a2,a2,15
    2548:	00e686b3          	add	a3,a3,a4
    254c:	00b72023          	sw	a1,0(a4)
    2550:	00b72223          	sw	a1,4(a4)
    2554:	00b72423          	sw	a1,8(a4)
    2558:	00b72623          	sw	a1,12(a4)
    255c:	01070713          	add	a4,a4,16
    2560:	fed766e3          	bltu	a4,a3,254c <memset+0x24>
    2564:	00061463          	bnez	a2,256c <memset+0x44>
    2568:	00008067          	ret
    256c:	40c306b3          	sub	a3,t1,a2
    2570:	00269693          	sll	a3,a3,0x2
    2574:	00000297          	auipc	t0,0x0
    2578:	005686b3          	add	a3,a3,t0
    257c:	00c68067          	jr	12(a3)
    2580:	00b70723          	sb	a1,14(a4)
    2584:	00b706a3          	sb	a1,13(a4)
    2588:	00b70623          	sb	a1,12(a4)
    258c:	00b705a3          	sb	a1,11(a4)
    2590:	00b70523          	sb	a1,10(a4)
    2594:	00b704a3          	sb	a1,9(a4)
    2598:	00b70423          	sb	a1,8(a4)
    259c:	00b703a3          	sb	a1,7(a4)
    25a0:	00b70323          	sb	a1,6(a4)
    25a4:	00b702a3          	sb	a1,5(a4)
    25a8:	00b70223          	sb	a1,4(a4)
    25ac:	00b701a3          	sb	a1,3(a4)
    25b0:	00b70123          	sb	a1,2(a4)
    25b4:	00b700a3          	sb	a1,1(a4)
    25b8:	00b70023          	sb	a1,0(a4)
    25bc:	00008067          	ret
    25c0:	0ff5f593          	zext.b	a1,a1
    25c4:	00859693          	sll	a3,a1,0x8
    25c8:	00d5e5b3          	or	a1,a1,a3
    25cc:	01059693          	sll	a3,a1,0x10
    25d0:	00d5e5b3          	or	a1,a1,a3
    25d4:	f6dff06f          	j	2540 <memset+0x18>
    25d8:	00279693          	sll	a3,a5,0x2
    25dc:	00000297          	auipc	t0,0x0
    25e0:	005686b3          	add	a3,a3,t0
    25e4:	00008293          	mv	t0,ra
    25e8:	fa0680e7          	jalr	-96(a3)
    25ec:	00028093          	mv	ra,t0
    25f0:	ff078793          	add	a5,a5,-16
    25f4:	40f70733          	sub	a4,a4,a5
    25f8:	00f60633          	add	a2,a2,a5
    25fc:	f6c378e3          	bgeu	t1,a2,256c <memset+0x44>
    2600:	f3dff06f          	j	253c <memset+0x14>

00002604 <__malloc_lock>:
    2604:	00008067          	ret

00002608 <__malloc_unlock>:
    2608:	00008067          	ret

0000260c <_Balloc>:
    260c:	04c52783          	lw	a5,76(a0)
    2610:	ff010113          	add	sp,sp,-16
    2614:	00812423          	sw	s0,8(sp)
    2618:	00912223          	sw	s1,4(sp)
    261c:	00112623          	sw	ra,12(sp)
    2620:	01212023          	sw	s2,0(sp)
    2624:	00050413          	mv	s0,a0
    2628:	00058493          	mv	s1,a1
    262c:	02078e63          	beqz	a5,2668 <_Balloc+0x5c>
    2630:	00249713          	sll	a4,s1,0x2
    2634:	00e787b3          	add	a5,a5,a4
    2638:	0007a503          	lw	a0,0(a5)
    263c:	04050663          	beqz	a0,2688 <_Balloc+0x7c>
    2640:	00052703          	lw	a4,0(a0)
    2644:	00e7a023          	sw	a4,0(a5)
    2648:	00052823          	sw	zero,16(a0)
    264c:	00052623          	sw	zero,12(a0)
    2650:	00c12083          	lw	ra,12(sp)
    2654:	00812403          	lw	s0,8(sp)
    2658:	00412483          	lw	s1,4(sp)
    265c:	00012903          	lw	s2,0(sp)
    2660:	01010113          	add	sp,sp,16
    2664:	00008067          	ret
    2668:	02100613          	li	a2,33
    266c:	00400593          	li	a1,4
    2670:	594010ef          	jal	3c04 <_calloc_r>
    2674:	04a42623          	sw	a0,76(s0)
    2678:	00050793          	mv	a5,a0
    267c:	fa051ae3          	bnez	a0,2630 <_Balloc+0x24>
    2680:	00000513          	li	a0,0
    2684:	fcdff06f          	j	2650 <_Balloc+0x44>
    2688:	00100913          	li	s2,1
    268c:	00991933          	sll	s2,s2,s1
    2690:	00590613          	add	a2,s2,5
    2694:	00261613          	sll	a2,a2,0x2
    2698:	00100593          	li	a1,1
    269c:	00040513          	mv	a0,s0
    26a0:	564010ef          	jal	3c04 <_calloc_r>
    26a4:	fc050ee3          	beqz	a0,2680 <_Balloc+0x74>
    26a8:	00952223          	sw	s1,4(a0)
    26ac:	01252423          	sw	s2,8(a0)
    26b0:	f99ff06f          	j	2648 <_Balloc+0x3c>

000026b4 <_Bfree>:
    26b4:	02058063          	beqz	a1,26d4 <_Bfree+0x20>
    26b8:	0045a703          	lw	a4,4(a1)
    26bc:	04c52783          	lw	a5,76(a0)
    26c0:	00271713          	sll	a4,a4,0x2
    26c4:	00e787b3          	add	a5,a5,a4
    26c8:	0007a703          	lw	a4,0(a5)
    26cc:	00e5a023          	sw	a4,0(a1)
    26d0:	00b7a023          	sw	a1,0(a5)
    26d4:	00008067          	ret

000026d8 <__multadd>:
    26d8:	fe010113          	add	sp,sp,-32
    26dc:	00912a23          	sw	s1,20(sp)
    26e0:	0105a483          	lw	s1,16(a1)
    26e4:	00010337          	lui	t1,0x10
    26e8:	00812c23          	sw	s0,24(sp)
    26ec:	01212823          	sw	s2,16(sp)
    26f0:	01312623          	sw	s3,12(sp)
    26f4:	00112e23          	sw	ra,28(sp)
    26f8:	01412423          	sw	s4,8(sp)
    26fc:	00058913          	mv	s2,a1
    2700:	00050993          	mv	s3,a0
    2704:	00068413          	mv	s0,a3
    2708:	01458813          	add	a6,a1,20
    270c:	00000893          	li	a7,0
    2710:	fff30313          	add	t1,t1,-1 # ffff <_data_lma+0x4703>
    2714:	00082783          	lw	a5,0(a6)
    2718:	00480813          	add	a6,a6,4
    271c:	00188893          	add	a7,a7,1
    2720:	0067f733          	and	a4,a5,t1
    2724:	02c70733          	mul	a4,a4,a2
    2728:	0107d693          	srl	a3,a5,0x10
    272c:	02c686b3          	mul	a3,a3,a2
    2730:	008707b3          	add	a5,a4,s0
    2734:	0107d713          	srl	a4,a5,0x10
    2738:	0067f7b3          	and	a5,a5,t1
    273c:	00e686b3          	add	a3,a3,a4
    2740:	01069713          	sll	a4,a3,0x10
    2744:	00f707b3          	add	a5,a4,a5
    2748:	fef82e23          	sw	a5,-4(a6)
    274c:	0106d413          	srl	s0,a3,0x10
    2750:	fc98c2e3          	blt	a7,s1,2714 <__multadd+0x3c>
    2754:	02040263          	beqz	s0,2778 <__multadd+0xa0>
    2758:	00892783          	lw	a5,8(s2)
    275c:	04f4d063          	bge	s1,a5,279c <__multadd+0xc4>
    2760:	00448793          	add	a5,s1,4
    2764:	00279793          	sll	a5,a5,0x2
    2768:	00f907b3          	add	a5,s2,a5
    276c:	0087a223          	sw	s0,4(a5)
    2770:	00148493          	add	s1,s1,1
    2774:	00992823          	sw	s1,16(s2)
    2778:	01c12083          	lw	ra,28(sp)
    277c:	01812403          	lw	s0,24(sp)
    2780:	01412483          	lw	s1,20(sp)
    2784:	00c12983          	lw	s3,12(sp)
    2788:	00812a03          	lw	s4,8(sp)
    278c:	00090513          	mv	a0,s2
    2790:	01012903          	lw	s2,16(sp)
    2794:	02010113          	add	sp,sp,32
    2798:	00008067          	ret
    279c:	00492583          	lw	a1,4(s2)
    27a0:	00098513          	mv	a0,s3
    27a4:	00158593          	add	a1,a1,1
    27a8:	e65ff0ef          	jal	260c <_Balloc>
    27ac:	00050a13          	mv	s4,a0
    27b0:	04050c63          	beqz	a0,2808 <__multadd+0x130>
    27b4:	01092603          	lw	a2,16(s2)
    27b8:	00c90593          	add	a1,s2,12
    27bc:	00c50513          	add	a0,a0,12
    27c0:	00260613          	add	a2,a2,2
    27c4:	00261613          	sll	a2,a2,0x2
    27c8:	aa1ff0ef          	jal	2268 <memcpy>
    27cc:	00492703          	lw	a4,4(s2)
    27d0:	04c9a783          	lw	a5,76(s3)
    27d4:	00271713          	sll	a4,a4,0x2
    27d8:	00e787b3          	add	a5,a5,a4
    27dc:	0007a703          	lw	a4,0(a5)
    27e0:	00e92023          	sw	a4,0(s2)
    27e4:	0127a023          	sw	s2,0(a5)
    27e8:	00448793          	add	a5,s1,4
    27ec:	000a0913          	mv	s2,s4
    27f0:	00279793          	sll	a5,a5,0x2
    27f4:	00f907b3          	add	a5,s2,a5
    27f8:	0087a223          	sw	s0,4(a5)
    27fc:	00148493          	add	s1,s1,1
    2800:	00992823          	sw	s1,16(s2)
    2804:	f75ff06f          	j	2778 <__multadd+0xa0>
    2808:	0001e697          	auipc	a3,0x1e
    280c:	f9468693          	add	a3,a3,-108 # 2079c <__clz_tab+0x100>
    2810:	00000613          	li	a2,0
    2814:	0b500593          	li	a1,181
    2818:	0001e517          	auipc	a0,0x1e
    281c:	f9850513          	add	a0,a0,-104 # 207b0 <__clz_tab+0x114>
    2820:	38c010ef          	jal	3bac <__assert_func>

00002824 <__hi0bits>:
    2824:	00050793          	mv	a5,a0
    2828:	00010737          	lui	a4,0x10
    282c:	00000513          	li	a0,0
    2830:	00e7f663          	bgeu	a5,a4,283c <__hi0bits+0x18>
    2834:	01079793          	sll	a5,a5,0x10
    2838:	01000513          	li	a0,16
    283c:	01000737          	lui	a4,0x1000
    2840:	00e7f663          	bgeu	a5,a4,284c <__hi0bits+0x28>
    2844:	00850513          	add	a0,a0,8
    2848:	00879793          	sll	a5,a5,0x8
    284c:	10000737          	lui	a4,0x10000
    2850:	00e7f663          	bgeu	a5,a4,285c <__hi0bits+0x38>
    2854:	00450513          	add	a0,a0,4
    2858:	00479793          	sll	a5,a5,0x4
    285c:	40000737          	lui	a4,0x40000
    2860:	00e7ea63          	bltu	a5,a4,2874 <__hi0bits+0x50>
    2864:	fff7c793          	not	a5,a5
    2868:	01f7d793          	srl	a5,a5,0x1f
    286c:	00f50533          	add	a0,a0,a5
    2870:	00008067          	ret
    2874:	00279793          	sll	a5,a5,0x2
    2878:	0007ca63          	bltz	a5,288c <__hi0bits+0x68>
    287c:	00e7f7b3          	and	a5,a5,a4
    2880:	00079a63          	bnez	a5,2894 <__hi0bits+0x70>
    2884:	02000513          	li	a0,32
    2888:	00008067          	ret
    288c:	00250513          	add	a0,a0,2
    2890:	00008067          	ret
    2894:	00350513          	add	a0,a0,3
    2898:	00008067          	ret

0000289c <__lo0bits>:
    289c:	00052783          	lw	a5,0(a0)
    28a0:	00050713          	mv	a4,a0
    28a4:	0077f693          	and	a3,a5,7
    28a8:	02068463          	beqz	a3,28d0 <__lo0bits+0x34>
    28ac:	0017f693          	and	a3,a5,1
    28b0:	00000513          	li	a0,0
    28b4:	04069e63          	bnez	a3,2910 <__lo0bits+0x74>
    28b8:	0027f693          	and	a3,a5,2
    28bc:	0a068863          	beqz	a3,296c <__lo0bits+0xd0>
    28c0:	0017d793          	srl	a5,a5,0x1
    28c4:	00f72023          	sw	a5,0(a4) # 40000000 <__freertos_irq_stack_top+0x3ffd0000>
    28c8:	00100513          	li	a0,1
    28cc:	00008067          	ret
    28d0:	01079693          	sll	a3,a5,0x10
    28d4:	0106d693          	srl	a3,a3,0x10
    28d8:	00000513          	li	a0,0
    28dc:	06068e63          	beqz	a3,2958 <__lo0bits+0xbc>
    28e0:	0ff7f693          	zext.b	a3,a5
    28e4:	06068063          	beqz	a3,2944 <__lo0bits+0xa8>
    28e8:	00f7f693          	and	a3,a5,15
    28ec:	04068263          	beqz	a3,2930 <__lo0bits+0x94>
    28f0:	0037f693          	and	a3,a5,3
    28f4:	02068463          	beqz	a3,291c <__lo0bits+0x80>
    28f8:	0017f693          	and	a3,a5,1
    28fc:	00069c63          	bnez	a3,2914 <__lo0bits+0x78>
    2900:	0017d793          	srl	a5,a5,0x1
    2904:	00150513          	add	a0,a0,1
    2908:	00079663          	bnez	a5,2914 <__lo0bits+0x78>
    290c:	02000513          	li	a0,32
    2910:	00008067          	ret
    2914:	00f72023          	sw	a5,0(a4)
    2918:	00008067          	ret
    291c:	0027d793          	srl	a5,a5,0x2
    2920:	0017f693          	and	a3,a5,1
    2924:	00250513          	add	a0,a0,2
    2928:	fe0696e3          	bnez	a3,2914 <__lo0bits+0x78>
    292c:	fd5ff06f          	j	2900 <__lo0bits+0x64>
    2930:	0047d793          	srl	a5,a5,0x4
    2934:	0037f693          	and	a3,a5,3
    2938:	00450513          	add	a0,a0,4
    293c:	fa069ee3          	bnez	a3,28f8 <__lo0bits+0x5c>
    2940:	fddff06f          	j	291c <__lo0bits+0x80>
    2944:	0087d793          	srl	a5,a5,0x8
    2948:	00f7f693          	and	a3,a5,15
    294c:	00850513          	add	a0,a0,8
    2950:	fa0690e3          	bnez	a3,28f0 <__lo0bits+0x54>
    2954:	fddff06f          	j	2930 <__lo0bits+0x94>
    2958:	0107d793          	srl	a5,a5,0x10
    295c:	0ff7f693          	zext.b	a3,a5
    2960:	01000513          	li	a0,16
    2964:	f80692e3          	bnez	a3,28e8 <__lo0bits+0x4c>
    2968:	fddff06f          	j	2944 <__lo0bits+0xa8>
    296c:	0027d793          	srl	a5,a5,0x2
    2970:	00f72023          	sw	a5,0(a4)
    2974:	00200513          	li	a0,2
    2978:	00008067          	ret

0000297c <__i2b>:
    297c:	04c52783          	lw	a5,76(a0)
    2980:	ff010113          	add	sp,sp,-16
    2984:	00812423          	sw	s0,8(sp)
    2988:	00912223          	sw	s1,4(sp)
    298c:	00112623          	sw	ra,12(sp)
    2990:	00050413          	mv	s0,a0
    2994:	00058493          	mv	s1,a1
    2998:	02078c63          	beqz	a5,29d0 <__i2b+0x54>
    299c:	0047a503          	lw	a0,4(a5)
    29a0:	06050263          	beqz	a0,2a04 <__i2b+0x88>
    29a4:	00052703          	lw	a4,0(a0)
    29a8:	00e7a223          	sw	a4,4(a5)
    29ac:	00c12083          	lw	ra,12(sp)
    29b0:	00812403          	lw	s0,8(sp)
    29b4:	00100793          	li	a5,1
    29b8:	00952a23          	sw	s1,20(a0)
    29bc:	00052623          	sw	zero,12(a0)
    29c0:	00f52823          	sw	a5,16(a0)
    29c4:	00412483          	lw	s1,4(sp)
    29c8:	01010113          	add	sp,sp,16
    29cc:	00008067          	ret
    29d0:	02100613          	li	a2,33
    29d4:	00400593          	li	a1,4
    29d8:	22c010ef          	jal	3c04 <_calloc_r>
    29dc:	04a42623          	sw	a0,76(s0)
    29e0:	00050793          	mv	a5,a0
    29e4:	fa051ce3          	bnez	a0,299c <__i2b+0x20>
    29e8:	0001e697          	auipc	a3,0x1e
    29ec:	db468693          	add	a3,a3,-588 # 2079c <__clz_tab+0x100>
    29f0:	00000613          	li	a2,0
    29f4:	14000593          	li	a1,320
    29f8:	0001e517          	auipc	a0,0x1e
    29fc:	db850513          	add	a0,a0,-584 # 207b0 <__clz_tab+0x114>
    2a00:	1ac010ef          	jal	3bac <__assert_func>
    2a04:	01c00613          	li	a2,28
    2a08:	00100593          	li	a1,1
    2a0c:	00040513          	mv	a0,s0
    2a10:	1f4010ef          	jal	3c04 <_calloc_r>
    2a14:	fc050ae3          	beqz	a0,29e8 <__i2b+0x6c>
    2a18:	00100793          	li	a5,1
    2a1c:	00f52223          	sw	a5,4(a0)
    2a20:	00200793          	li	a5,2
    2a24:	00f52423          	sw	a5,8(a0)
    2a28:	f85ff06f          	j	29ac <__i2b+0x30>

00002a2c <__multiply>:
    2a2c:	fe010113          	add	sp,sp,-32
    2a30:	01212823          	sw	s2,16(sp)
    2a34:	01312623          	sw	s3,12(sp)
    2a38:	0105a903          	lw	s2,16(a1)
    2a3c:	01062983          	lw	s3,16(a2)
    2a40:	00912a23          	sw	s1,20(sp)
    2a44:	01412423          	sw	s4,8(sp)
    2a48:	00112e23          	sw	ra,28(sp)
    2a4c:	00812c23          	sw	s0,24(sp)
    2a50:	00058a13          	mv	s4,a1
    2a54:	00060493          	mv	s1,a2
    2a58:	01394c63          	blt	s2,s3,2a70 <__multiply+0x44>
    2a5c:	00098713          	mv	a4,s3
    2a60:	00058493          	mv	s1,a1
    2a64:	00090993          	mv	s3,s2
    2a68:	00060a13          	mv	s4,a2
    2a6c:	00070913          	mv	s2,a4
    2a70:	0084a783          	lw	a5,8(s1)
    2a74:	0044a583          	lw	a1,4(s1)
    2a78:	01298433          	add	s0,s3,s2
    2a7c:	0087a7b3          	slt	a5,a5,s0
    2a80:	00f585b3          	add	a1,a1,a5
    2a84:	b89ff0ef          	jal	260c <_Balloc>
    2a88:	1a050e63          	beqz	a0,2c44 <__multiply+0x218>
    2a8c:	01450313          	add	t1,a0,20
    2a90:	00241893          	sll	a7,s0,0x2
    2a94:	011308b3          	add	a7,t1,a7
    2a98:	00030793          	mv	a5,t1
    2a9c:	01137863          	bgeu	t1,a7,2aac <__multiply+0x80>
    2aa0:	0007a023          	sw	zero,0(a5)
    2aa4:	00478793          	add	a5,a5,4
    2aa8:	ff17ece3          	bltu	a5,a7,2aa0 <__multiply+0x74>
    2aac:	014a0813          	add	a6,s4,20
    2ab0:	00291e13          	sll	t3,s2,0x2
    2ab4:	01448e93          	add	t4,s1,20
    2ab8:	00299593          	sll	a1,s3,0x2
    2abc:	01c80e33          	add	t3,a6,t3
    2ac0:	00be85b3          	add	a1,t4,a1
    2ac4:	13c87663          	bgeu	a6,t3,2bf0 <__multiply+0x1c4>
    2ac8:	01548793          	add	a5,s1,21
    2acc:	00400f13          	li	t5,4
    2ad0:	16f5f063          	bgeu	a1,a5,2c30 <__multiply+0x204>
    2ad4:	000106b7          	lui	a3,0x10
    2ad8:	fff68693          	add	a3,a3,-1 # ffff <_data_lma+0x4703>
    2adc:	0180006f          	j	2af4 <__multiply+0xc8>
    2ae0:	010fdf93          	srl	t6,t6,0x10
    2ae4:	080f9863          	bnez	t6,2b74 <__multiply+0x148>
    2ae8:	00480813          	add	a6,a6,4
    2aec:	00430313          	add	t1,t1,4
    2af0:	11c87063          	bgeu	a6,t3,2bf0 <__multiply+0x1c4>
    2af4:	00082f83          	lw	t6,0(a6)
    2af8:	00dff3b3          	and	t2,t6,a3
    2afc:	fe0382e3          	beqz	t2,2ae0 <__multiply+0xb4>
    2b00:	00030293          	mv	t0,t1
    2b04:	000e8f93          	mv	t6,t4
    2b08:	00000493          	li	s1,0
    2b0c:	000fa783          	lw	a5,0(t6)
    2b10:	0002a603          	lw	a2,0(t0) # 25dc <memset+0xb4>
    2b14:	00428293          	add	t0,t0,4
    2b18:	00d7f733          	and	a4,a5,a3
    2b1c:	02770733          	mul	a4,a4,t2
    2b20:	0107d793          	srl	a5,a5,0x10
    2b24:	00d67933          	and	s2,a2,a3
    2b28:	01065613          	srl	a2,a2,0x10
    2b2c:	004f8f93          	add	t6,t6,4
    2b30:	027787b3          	mul	a5,a5,t2
    2b34:	01270733          	add	a4,a4,s2
    2b38:	00970733          	add	a4,a4,s1
    2b3c:	01075493          	srl	s1,a4,0x10
    2b40:	00d77733          	and	a4,a4,a3
    2b44:	00c787b3          	add	a5,a5,a2
    2b48:	009787b3          	add	a5,a5,s1
    2b4c:	01079613          	sll	a2,a5,0x10
    2b50:	00e66733          	or	a4,a2,a4
    2b54:	fee2ae23          	sw	a4,-4(t0)
    2b58:	0107d493          	srl	s1,a5,0x10
    2b5c:	fabfe8e3          	bltu	t6,a1,2b0c <__multiply+0xe0>
    2b60:	01e307b3          	add	a5,t1,t5
    2b64:	0097a023          	sw	s1,0(a5)
    2b68:	00082f83          	lw	t6,0(a6)
    2b6c:	010fdf93          	srl	t6,t6,0x10
    2b70:	f60f8ce3          	beqz	t6,2ae8 <__multiply+0xbc>
    2b74:	00032703          	lw	a4,0(t1)
    2b78:	00030293          	mv	t0,t1
    2b7c:	000e8613          	mv	a2,t4
    2b80:	00070493          	mv	s1,a4
    2b84:	00000393          	li	t2,0
    2b88:	00062783          	lw	a5,0(a2)
    2b8c:	0104d993          	srl	s3,s1,0x10
    2b90:	00d77733          	and	a4,a4,a3
    2b94:	00d7f7b3          	and	a5,a5,a3
    2b98:	03f787b3          	mul	a5,a5,t6
    2b9c:	0042a483          	lw	s1,4(t0)
    2ba0:	00428293          	add	t0,t0,4
    2ba4:	00460613          	add	a2,a2,4
    2ba8:	00d4f933          	and	s2,s1,a3
    2bac:	007787b3          	add	a5,a5,t2
    2bb0:	013787b3          	add	a5,a5,s3
    2bb4:	01079393          	sll	t2,a5,0x10
    2bb8:	00e3e733          	or	a4,t2,a4
    2bbc:	fee2ae23          	sw	a4,-4(t0)
    2bc0:	ffe65703          	lhu	a4,-2(a2)
    2bc4:	0107d793          	srl	a5,a5,0x10
    2bc8:	03f70733          	mul	a4,a4,t6
    2bcc:	01270733          	add	a4,a4,s2
    2bd0:	00f70733          	add	a4,a4,a5
    2bd4:	01075393          	srl	t2,a4,0x10
    2bd8:	fab668e3          	bltu	a2,a1,2b88 <__multiply+0x15c>
    2bdc:	01e307b3          	add	a5,t1,t5
    2be0:	00e7a023          	sw	a4,0(a5)
    2be4:	00480813          	add	a6,a6,4
    2be8:	00430313          	add	t1,t1,4
    2bec:	f1c864e3          	bltu	a6,t3,2af4 <__multiply+0xc8>
    2bf0:	00804863          	bgtz	s0,2c00 <__multiply+0x1d4>
    2bf4:	0180006f          	j	2c0c <__multiply+0x1e0>
    2bf8:	fff40413          	add	s0,s0,-1
    2bfc:	00040863          	beqz	s0,2c0c <__multiply+0x1e0>
    2c00:	ffc8a783          	lw	a5,-4(a7)
    2c04:	ffc88893          	add	a7,a7,-4
    2c08:	fe0788e3          	beqz	a5,2bf8 <__multiply+0x1cc>
    2c0c:	01c12083          	lw	ra,28(sp)
    2c10:	00852823          	sw	s0,16(a0)
    2c14:	01812403          	lw	s0,24(sp)
    2c18:	01412483          	lw	s1,20(sp)
    2c1c:	01012903          	lw	s2,16(sp)
    2c20:	00c12983          	lw	s3,12(sp)
    2c24:	00812a03          	lw	s4,8(sp)
    2c28:	02010113          	add	sp,sp,32
    2c2c:	00008067          	ret
    2c30:	409587b3          	sub	a5,a1,s1
    2c34:	feb78793          	add	a5,a5,-21
    2c38:	ffc7f793          	and	a5,a5,-4
    2c3c:	00478f13          	add	t5,a5,4
    2c40:	e95ff06f          	j	2ad4 <__multiply+0xa8>
    2c44:	0001e697          	auipc	a3,0x1e
    2c48:	b5868693          	add	a3,a3,-1192 # 2079c <__clz_tab+0x100>
    2c4c:	00000613          	li	a2,0
    2c50:	15d00593          	li	a1,349
    2c54:	0001e517          	auipc	a0,0x1e
    2c58:	b5c50513          	add	a0,a0,-1188 # 207b0 <__clz_tab+0x114>
    2c5c:	751000ef          	jal	3bac <__assert_func>

00002c60 <__pow5mult>:
    2c60:	fe010113          	add	sp,sp,-32
    2c64:	00812c23          	sw	s0,24(sp)
    2c68:	01212823          	sw	s2,16(sp)
    2c6c:	01312623          	sw	s3,12(sp)
    2c70:	00112e23          	sw	ra,28(sp)
    2c74:	00912a23          	sw	s1,20(sp)
    2c78:	00367793          	and	a5,a2,3
    2c7c:	00060413          	mv	s0,a2
    2c80:	00050993          	mv	s3,a0
    2c84:	00058913          	mv	s2,a1
    2c88:	0a079a63          	bnez	a5,2d3c <__pow5mult+0xdc>
    2c8c:	40245413          	sra	s0,s0,0x2
    2c90:	06040663          	beqz	s0,2cfc <__pow5mult+0x9c>
    2c94:	0489a483          	lw	s1,72(s3)
    2c98:	0c048663          	beqz	s1,2d64 <__pow5mult+0x104>
    2c9c:	00147793          	and	a5,s0,1
    2ca0:	02079063          	bnez	a5,2cc0 <__pow5mult+0x60>
    2ca4:	40145413          	sra	s0,s0,0x1
    2ca8:	04040a63          	beqz	s0,2cfc <__pow5mult+0x9c>
    2cac:	0004a503          	lw	a0,0(s1)
    2cb0:	06050663          	beqz	a0,2d1c <__pow5mult+0xbc>
    2cb4:	00050493          	mv	s1,a0
    2cb8:	00147793          	and	a5,s0,1
    2cbc:	fe0784e3          	beqz	a5,2ca4 <__pow5mult+0x44>
    2cc0:	00048613          	mv	a2,s1
    2cc4:	00090593          	mv	a1,s2
    2cc8:	00098513          	mv	a0,s3
    2ccc:	d61ff0ef          	jal	2a2c <__multiply>
    2cd0:	02090063          	beqz	s2,2cf0 <__pow5mult+0x90>
    2cd4:	00492703          	lw	a4,4(s2)
    2cd8:	04c9a783          	lw	a5,76(s3)
    2cdc:	00271713          	sll	a4,a4,0x2
    2ce0:	00e787b3          	add	a5,a5,a4
    2ce4:	0007a703          	lw	a4,0(a5)
    2ce8:	00e92023          	sw	a4,0(s2)
    2cec:	0127a023          	sw	s2,0(a5)
    2cf0:	40145413          	sra	s0,s0,0x1
    2cf4:	00050913          	mv	s2,a0
    2cf8:	fa041ae3          	bnez	s0,2cac <__pow5mult+0x4c>
    2cfc:	01c12083          	lw	ra,28(sp)
    2d00:	01812403          	lw	s0,24(sp)
    2d04:	01412483          	lw	s1,20(sp)
    2d08:	00c12983          	lw	s3,12(sp)
    2d0c:	00090513          	mv	a0,s2
    2d10:	01012903          	lw	s2,16(sp)
    2d14:	02010113          	add	sp,sp,32
    2d18:	00008067          	ret
    2d1c:	00048613          	mv	a2,s1
    2d20:	00048593          	mv	a1,s1
    2d24:	00098513          	mv	a0,s3
    2d28:	d05ff0ef          	jal	2a2c <__multiply>
    2d2c:	00a4a023          	sw	a0,0(s1)
    2d30:	00052023          	sw	zero,0(a0)
    2d34:	00050493          	mv	s1,a0
    2d38:	f81ff06f          	j	2cb8 <__pow5mult+0x58>
    2d3c:	fff78793          	add	a5,a5,-1
    2d40:	0001e717          	auipc	a4,0x1e
    2d44:	ac470713          	add	a4,a4,-1340 # 20804 <p05.0>
    2d48:	00279793          	sll	a5,a5,0x2
    2d4c:	00f707b3          	add	a5,a4,a5
    2d50:	0007a603          	lw	a2,0(a5)
    2d54:	00000693          	li	a3,0
    2d58:	981ff0ef          	jal	26d8 <__multadd>
    2d5c:	00050913          	mv	s2,a0
    2d60:	f2dff06f          	j	2c8c <__pow5mult+0x2c>
    2d64:	00100593          	li	a1,1
    2d68:	00098513          	mv	a0,s3
    2d6c:	8a1ff0ef          	jal	260c <_Balloc>
    2d70:	00050493          	mv	s1,a0
    2d74:	02050063          	beqz	a0,2d94 <__pow5mult+0x134>
    2d78:	27100793          	li	a5,625
    2d7c:	00f52a23          	sw	a5,20(a0)
    2d80:	00100793          	li	a5,1
    2d84:	00f52823          	sw	a5,16(a0)
    2d88:	04a9a423          	sw	a0,72(s3)
    2d8c:	00052023          	sw	zero,0(a0)
    2d90:	f0dff06f          	j	2c9c <__pow5mult+0x3c>
    2d94:	0001e697          	auipc	a3,0x1e
    2d98:	a0868693          	add	a3,a3,-1528 # 2079c <__clz_tab+0x100>
    2d9c:	00000613          	li	a2,0
    2da0:	14000593          	li	a1,320
    2da4:	0001e517          	auipc	a0,0x1e
    2da8:	a0c50513          	add	a0,a0,-1524 # 207b0 <__clz_tab+0x114>
    2dac:	601000ef          	jal	3bac <__assert_func>

00002db0 <__lshift>:
    2db0:	fe010113          	add	sp,sp,-32
    2db4:	01512223          	sw	s5,4(sp)
    2db8:	0105aa83          	lw	s5,16(a1)
    2dbc:	0085a783          	lw	a5,8(a1)
    2dc0:	01312623          	sw	s3,12(sp)
    2dc4:	40565993          	sra	s3,a2,0x5
    2dc8:	01598ab3          	add	s5,s3,s5
    2dcc:	00812c23          	sw	s0,24(sp)
    2dd0:	00912a23          	sw	s1,20(sp)
    2dd4:	01212823          	sw	s2,16(sp)
    2dd8:	01412423          	sw	s4,8(sp)
    2ddc:	00112e23          	sw	ra,28(sp)
    2de0:	001a8913          	add	s2,s5,1
    2de4:	00058493          	mv	s1,a1
    2de8:	00060413          	mv	s0,a2
    2dec:	0045a583          	lw	a1,4(a1)
    2df0:	00050a13          	mv	s4,a0
    2df4:	0127d863          	bge	a5,s2,2e04 <__lshift+0x54>
    2df8:	00179793          	sll	a5,a5,0x1
    2dfc:	00158593          	add	a1,a1,1
    2e00:	ff27cce3          	blt	a5,s2,2df8 <__lshift+0x48>
    2e04:	000a0513          	mv	a0,s4
    2e08:	805ff0ef          	jal	260c <_Balloc>
    2e0c:	10050c63          	beqz	a0,2f24 <__lshift+0x174>
    2e10:	01450813          	add	a6,a0,20
    2e14:	03305463          	blez	s3,2e3c <__lshift+0x8c>
    2e18:	00598993          	add	s3,s3,5
    2e1c:	00299993          	sll	s3,s3,0x2
    2e20:	01350733          	add	a4,a0,s3
    2e24:	00080793          	mv	a5,a6
    2e28:	00478793          	add	a5,a5,4
    2e2c:	fe07ae23          	sw	zero,-4(a5)
    2e30:	fee79ce3          	bne	a5,a4,2e28 <__lshift+0x78>
    2e34:	fec98993          	add	s3,s3,-20
    2e38:	01380833          	add	a6,a6,s3
    2e3c:	0104a883          	lw	a7,16(s1)
    2e40:	01448793          	add	a5,s1,20
    2e44:	01f47613          	and	a2,s0,31
    2e48:	00289893          	sll	a7,a7,0x2
    2e4c:	011788b3          	add	a7,a5,a7
    2e50:	0a060463          	beqz	a2,2ef8 <__lshift+0x148>
    2e54:	02000593          	li	a1,32
    2e58:	40c585b3          	sub	a1,a1,a2
    2e5c:	00080313          	mv	t1,a6
    2e60:	00000693          	li	a3,0
    2e64:	0007a703          	lw	a4,0(a5)
    2e68:	00430313          	add	t1,t1,4
    2e6c:	00478793          	add	a5,a5,4
    2e70:	00c71733          	sll	a4,a4,a2
    2e74:	00d76733          	or	a4,a4,a3
    2e78:	fee32e23          	sw	a4,-4(t1)
    2e7c:	ffc7a683          	lw	a3,-4(a5)
    2e80:	00b6d6b3          	srl	a3,a3,a1
    2e84:	ff17e0e3          	bltu	a5,a7,2e64 <__lshift+0xb4>
    2e88:	01548793          	add	a5,s1,21
    2e8c:	00400713          	li	a4,4
    2e90:	00f8ea63          	bltu	a7,a5,2ea4 <__lshift+0xf4>
    2e94:	409887b3          	sub	a5,a7,s1
    2e98:	feb78793          	add	a5,a5,-21
    2e9c:	ffc7f793          	and	a5,a5,-4
    2ea0:	00478713          	add	a4,a5,4
    2ea4:	00e80833          	add	a6,a6,a4
    2ea8:	00d82023          	sw	a3,0(a6)
    2eac:	00069463          	bnez	a3,2eb4 <__lshift+0x104>
    2eb0:	000a8913          	mv	s2,s5
    2eb4:	0044a703          	lw	a4,4(s1)
    2eb8:	04ca2783          	lw	a5,76(s4)
    2ebc:	01c12083          	lw	ra,28(sp)
    2ec0:	00271713          	sll	a4,a4,0x2
    2ec4:	00e787b3          	add	a5,a5,a4
    2ec8:	0007a703          	lw	a4,0(a5)
    2ecc:	01252823          	sw	s2,16(a0)
    2ed0:	01812403          	lw	s0,24(sp)
    2ed4:	00e4a023          	sw	a4,0(s1)
    2ed8:	0097a023          	sw	s1,0(a5)
    2edc:	01012903          	lw	s2,16(sp)
    2ee0:	01412483          	lw	s1,20(sp)
    2ee4:	00c12983          	lw	s3,12(sp)
    2ee8:	00812a03          	lw	s4,8(sp)
    2eec:	00412a83          	lw	s5,4(sp)
    2ef0:	02010113          	add	sp,sp,32
    2ef4:	00008067          	ret
    2ef8:	0007a703          	lw	a4,0(a5)
    2efc:	00478793          	add	a5,a5,4
    2f00:	00480813          	add	a6,a6,4
    2f04:	fee82e23          	sw	a4,-4(a6)
    2f08:	fb17f4e3          	bgeu	a5,a7,2eb0 <__lshift+0x100>
    2f0c:	0007a703          	lw	a4,0(a5)
    2f10:	00478793          	add	a5,a5,4
    2f14:	00480813          	add	a6,a6,4
    2f18:	fee82e23          	sw	a4,-4(a6)
    2f1c:	fd17eee3          	bltu	a5,a7,2ef8 <__lshift+0x148>
    2f20:	f91ff06f          	j	2eb0 <__lshift+0x100>
    2f24:	0001e697          	auipc	a3,0x1e
    2f28:	87868693          	add	a3,a3,-1928 # 2079c <__clz_tab+0x100>
    2f2c:	00000613          	li	a2,0
    2f30:	1d900593          	li	a1,473
    2f34:	0001e517          	auipc	a0,0x1e
    2f38:	87c50513          	add	a0,a0,-1924 # 207b0 <__clz_tab+0x114>
    2f3c:	471000ef          	jal	3bac <__assert_func>

00002f40 <__mcmp>:
    2f40:	01052703          	lw	a4,16(a0)
    2f44:	0105a783          	lw	a5,16(a1)
    2f48:	00050813          	mv	a6,a0
    2f4c:	40f70533          	sub	a0,a4,a5
    2f50:	04f71263          	bne	a4,a5,2f94 <__mcmp+0x54>
    2f54:	00279793          	sll	a5,a5,0x2
    2f58:	01480813          	add	a6,a6,20
    2f5c:	01458593          	add	a1,a1,20
    2f60:	00f80733          	add	a4,a6,a5
    2f64:	00f587b3          	add	a5,a1,a5
    2f68:	0080006f          	j	2f70 <__mcmp+0x30>
    2f6c:	02e87463          	bgeu	a6,a4,2f94 <__mcmp+0x54>
    2f70:	ffc72603          	lw	a2,-4(a4)
    2f74:	ffc7a683          	lw	a3,-4(a5)
    2f78:	ffc70713          	add	a4,a4,-4
    2f7c:	ffc78793          	add	a5,a5,-4
    2f80:	fed606e3          	beq	a2,a3,2f6c <__mcmp+0x2c>
    2f84:	00100513          	li	a0,1
    2f88:	00d67663          	bgeu	a2,a3,2f94 <__mcmp+0x54>
    2f8c:	fff00513          	li	a0,-1
    2f90:	00008067          	ret
    2f94:	00008067          	ret

00002f98 <__mdiff>:
    2f98:	0105a703          	lw	a4,16(a1)
    2f9c:	01062783          	lw	a5,16(a2)
    2fa0:	ff010113          	add	sp,sp,-16
    2fa4:	00812423          	sw	s0,8(sp)
    2fa8:	00912223          	sw	s1,4(sp)
    2fac:	01212023          	sw	s2,0(sp)
    2fb0:	00112623          	sw	ra,12(sp)
    2fb4:	00058493          	mv	s1,a1
    2fb8:	00060413          	mv	s0,a2
    2fbc:	40f70933          	sub	s2,a4,a5
    2fc0:	04f71663          	bne	a4,a5,300c <__mdiff+0x74>
    2fc4:	00279693          	sll	a3,a5,0x2
    2fc8:	01458593          	add	a1,a1,20
    2fcc:	01460713          	add	a4,a2,20
    2fd0:	00d587b3          	add	a5,a1,a3
    2fd4:	00d70733          	add	a4,a4,a3
    2fd8:	0080006f          	j	2fe0 <__mdiff+0x48>
    2fdc:	18f5f463          	bgeu	a1,a5,3164 <__mdiff+0x1cc>
    2fe0:	ffc7a603          	lw	a2,-4(a5)
    2fe4:	ffc72683          	lw	a3,-4(a4)
    2fe8:	ffc78793          	add	a5,a5,-4
    2fec:	ffc70713          	add	a4,a4,-4
    2ff0:	fed606e3          	beq	a2,a3,2fdc <__mdiff+0x44>
    2ff4:	02d67063          	bgeu	a2,a3,3014 <__mdiff+0x7c>
    2ff8:	00048793          	mv	a5,s1
    2ffc:	00100913          	li	s2,1
    3000:	00040493          	mv	s1,s0
    3004:	00078413          	mv	s0,a5
    3008:	00c0006f          	j	3014 <__mdiff+0x7c>
    300c:	fe0946e3          	bltz	s2,2ff8 <__mdiff+0x60>
    3010:	00000913          	li	s2,0
    3014:	0044a583          	lw	a1,4(s1)
    3018:	df4ff0ef          	jal	260c <_Balloc>
    301c:	1a050863          	beqz	a0,31cc <__mdiff+0x234>
    3020:	0104a303          	lw	t1,16(s1)
    3024:	01042603          	lw	a2,16(s0)
    3028:	01448293          	add	t0,s1,20
    302c:	00231e13          	sll	t3,t1,0x2
    3030:	01440813          	add	a6,s0,20
    3034:	00261613          	sll	a2,a2,0x2
    3038:	01450f93          	add	t6,a0,20
    303c:	000108b7          	lui	a7,0x10
    3040:	01252623          	sw	s2,12(a0)
    3044:	01c28e33          	add	t3,t0,t3
    3048:	00c80633          	add	a2,a6,a2
    304c:	000f8f13          	mv	t5,t6
    3050:	00028e93          	mv	t4,t0
    3054:	00000693          	li	a3,0
    3058:	fff88893          	add	a7,a7,-1 # ffff <_data_lma+0x4703>
    305c:	000ea703          	lw	a4,0(t4)
    3060:	00082583          	lw	a1,0(a6)
    3064:	004f0f13          	add	t5,t5,4
    3068:	011777b3          	and	a5,a4,a7
    306c:	0115f3b3          	and	t2,a1,a7
    3070:	407787b3          	sub	a5,a5,t2
    3074:	00d787b3          	add	a5,a5,a3
    3078:	01075713          	srl	a4,a4,0x10
    307c:	0105d593          	srl	a1,a1,0x10
    3080:	4107d693          	sra	a3,a5,0x10
    3084:	40b70733          	sub	a4,a4,a1
    3088:	00d70733          	add	a4,a4,a3
    308c:	01071693          	sll	a3,a4,0x10
    3090:	0117f7b3          	and	a5,a5,a7
    3094:	00d7e7b3          	or	a5,a5,a3
    3098:	00480813          	add	a6,a6,4
    309c:	feff2e23          	sw	a5,-4(t5)
    30a0:	004e8e93          	add	t4,t4,4
    30a4:	41075693          	sra	a3,a4,0x10
    30a8:	fac86ae3          	bltu	a6,a2,305c <__mdiff+0xc4>
    30ac:	40860733          	sub	a4,a2,s0
    30b0:	feb70713          	add	a4,a4,-21
    30b4:	01540413          	add	s0,s0,21
    30b8:	00275f13          	srl	t5,a4,0x2
    30bc:	00400713          	li	a4,4
    30c0:	00866663          	bltu	a2,s0,30cc <__mdiff+0x134>
    30c4:	001f0713          	add	a4,t5,1
    30c8:	00271713          	sll	a4,a4,0x2
    30cc:	00e282b3          	add	t0,t0,a4
    30d0:	00ef8833          	add	a6,t6,a4
    30d4:	00010eb7          	lui	t4,0x10
    30d8:	00080893          	mv	a7,a6
    30dc:	00028593          	mv	a1,t0
    30e0:	fffe8e93          	add	t4,t4,-1 # ffff <_data_lma+0x4703>
    30e4:	0bc2f863          	bgeu	t0,t3,3194 <__mdiff+0x1fc>
    30e8:	0005a783          	lw	a5,0(a1)
    30ec:	00488893          	add	a7,a7,4
    30f0:	00458593          	add	a1,a1,4
    30f4:	01d7f733          	and	a4,a5,t4
    30f8:	00d70733          	add	a4,a4,a3
    30fc:	0107d613          	srl	a2,a5,0x10
    3100:	41075713          	sra	a4,a4,0x10
    3104:	00c70733          	add	a4,a4,a2
    3108:	00d787b3          	add	a5,a5,a3
    310c:	01d7f7b3          	and	a5,a5,t4
    3110:	01071693          	sll	a3,a4,0x10
    3114:	00d7e7b3          	or	a5,a5,a3
    3118:	fef8ae23          	sw	a5,-4(a7)
    311c:	41075693          	sra	a3,a4,0x10
    3120:	fdc5e4e3          	bltu	a1,t3,30e8 <__mdiff+0x150>
    3124:	fffe0e13          	add	t3,t3,-1
    3128:	405e0e33          	sub	t3,t3,t0
    312c:	ffce7e13          	and	t3,t3,-4
    3130:	01c80733          	add	a4,a6,t3
    3134:	00079a63          	bnez	a5,3148 <__mdiff+0x1b0>
    3138:	ffc72783          	lw	a5,-4(a4)
    313c:	fff30313          	add	t1,t1,-1
    3140:	ffc70713          	add	a4,a4,-4
    3144:	fe078ae3          	beqz	a5,3138 <__mdiff+0x1a0>
    3148:	00c12083          	lw	ra,12(sp)
    314c:	00812403          	lw	s0,8(sp)
    3150:	00652823          	sw	t1,16(a0)
    3154:	00412483          	lw	s1,4(sp)
    3158:	00012903          	lw	s2,0(sp)
    315c:	01010113          	add	sp,sp,16
    3160:	00008067          	ret
    3164:	00000593          	li	a1,0
    3168:	ca4ff0ef          	jal	260c <_Balloc>
    316c:	04050263          	beqz	a0,31b0 <__mdiff+0x218>
    3170:	00c12083          	lw	ra,12(sp)
    3174:	00812403          	lw	s0,8(sp)
    3178:	00100793          	li	a5,1
    317c:	00f52823          	sw	a5,16(a0)
    3180:	00052a23          	sw	zero,20(a0)
    3184:	00412483          	lw	s1,4(sp)
    3188:	00012903          	lw	s2,0(sp)
    318c:	01010113          	add	sp,sp,16
    3190:	00008067          	ret
    3194:	00000713          	li	a4,0
    3198:	00867663          	bgeu	a2,s0,31a4 <__mdiff+0x20c>
    319c:	00ef8733          	add	a4,t6,a4
    31a0:	f95ff06f          	j	3134 <__mdiff+0x19c>
    31a4:	002f1713          	sll	a4,t5,0x2
    31a8:	00ef8733          	add	a4,t6,a4
    31ac:	f89ff06f          	j	3134 <__mdiff+0x19c>
    31b0:	0001d697          	auipc	a3,0x1d
    31b4:	5ec68693          	add	a3,a3,1516 # 2079c <__clz_tab+0x100>
    31b8:	00000613          	li	a2,0
    31bc:	23200593          	li	a1,562
    31c0:	0001d517          	auipc	a0,0x1d
    31c4:	5f050513          	add	a0,a0,1520 # 207b0 <__clz_tab+0x114>
    31c8:	1e5000ef          	jal	3bac <__assert_func>
    31cc:	0001d697          	auipc	a3,0x1d
    31d0:	5d068693          	add	a3,a3,1488 # 2079c <__clz_tab+0x100>
    31d4:	00000613          	li	a2,0
    31d8:	24000593          	li	a1,576
    31dc:	0001d517          	auipc	a0,0x1d
    31e0:	5d450513          	add	a0,a0,1492 # 207b0 <__clz_tab+0x114>
    31e4:	1c9000ef          	jal	3bac <__assert_func>

000031e8 <__d2b>:
    31e8:	fd010113          	add	sp,sp,-48
    31ec:	01512a23          	sw	s5,20(sp)
    31f0:	00058a93          	mv	s5,a1
    31f4:	00100593          	li	a1,1
    31f8:	02912223          	sw	s1,36(sp)
    31fc:	01312e23          	sw	s3,28(sp)
    3200:	01412c23          	sw	s4,24(sp)
    3204:	02112623          	sw	ra,44(sp)
    3208:	02812423          	sw	s0,40(sp)
    320c:	03212023          	sw	s2,32(sp)
    3210:	00060493          	mv	s1,a2
    3214:	00068a13          	mv	s4,a3
    3218:	00070993          	mv	s3,a4
    321c:	bf0ff0ef          	jal	260c <_Balloc>
    3220:	10050263          	beqz	a0,3324 <__d2b+0x13c>
    3224:	00100737          	lui	a4,0x100
    3228:	0144d913          	srl	s2,s1,0x14
    322c:	fff70793          	add	a5,a4,-1 # fffff <__freertos_irq_stack_top+0xcffff>
    3230:	7ff97913          	and	s2,s2,2047
    3234:	00050413          	mv	s0,a0
    3238:	0097f7b3          	and	a5,a5,s1
    323c:	00090463          	beqz	s2,3244 <__d2b+0x5c>
    3240:	00e7e7b3          	or	a5,a5,a4
    3244:	00f12623          	sw	a5,12(sp)
    3248:	060a9263          	bnez	s5,32ac <__d2b+0xc4>
    324c:	00c10513          	add	a0,sp,12
    3250:	e4cff0ef          	jal	289c <__lo0bits>
    3254:	00c12703          	lw	a4,12(sp)
    3258:	00100493          	li	s1,1
    325c:	00942823          	sw	s1,16(s0)
    3260:	00e42a23          	sw	a4,20(s0)
    3264:	02050793          	add	a5,a0,32
    3268:	08090863          	beqz	s2,32f8 <__d2b+0x110>
    326c:	bcd90913          	add	s2,s2,-1075
    3270:	00f90933          	add	s2,s2,a5
    3274:	03500493          	li	s1,53
    3278:	012a2023          	sw	s2,0(s4)
    327c:	40f48533          	sub	a0,s1,a5
    3280:	00a9a023          	sw	a0,0(s3)
    3284:	02c12083          	lw	ra,44(sp)
    3288:	00040513          	mv	a0,s0
    328c:	02812403          	lw	s0,40(sp)
    3290:	02412483          	lw	s1,36(sp)
    3294:	02012903          	lw	s2,32(sp)
    3298:	01c12983          	lw	s3,28(sp)
    329c:	01812a03          	lw	s4,24(sp)
    32a0:	01412a83          	lw	s5,20(sp)
    32a4:	03010113          	add	sp,sp,48
    32a8:	00008067          	ret
    32ac:	00810513          	add	a0,sp,8
    32b0:	01512423          	sw	s5,8(sp)
    32b4:	de8ff0ef          	jal	289c <__lo0bits>
    32b8:	00c12703          	lw	a4,12(sp)
    32bc:	00050793          	mv	a5,a0
    32c0:	04050e63          	beqz	a0,331c <__d2b+0x134>
    32c4:	00812603          	lw	a2,8(sp)
    32c8:	02000693          	li	a3,32
    32cc:	40a686b3          	sub	a3,a3,a0
    32d0:	00d716b3          	sll	a3,a4,a3
    32d4:	00a75733          	srl	a4,a4,a0
    32d8:	00c6e6b3          	or	a3,a3,a2
    32dc:	00e12623          	sw	a4,12(sp)
    32e0:	00e034b3          	snez	s1,a4
    32e4:	00148493          	add	s1,s1,1
    32e8:	00d42a23          	sw	a3,20(s0)
    32ec:	00e42c23          	sw	a4,24(s0)
    32f0:	00942823          	sw	s1,16(s0)
    32f4:	f6091ce3          	bnez	s2,326c <__d2b+0x84>
    32f8:	00249713          	sll	a4,s1,0x2
    32fc:	00e40733          	add	a4,s0,a4
    3300:	01072503          	lw	a0,16(a4)
    3304:	bce78793          	add	a5,a5,-1074
    3308:	00fa2023          	sw	a5,0(s4)
    330c:	d18ff0ef          	jal	2824 <__hi0bits>
    3310:	00549493          	sll	s1,s1,0x5
    3314:	40a48533          	sub	a0,s1,a0
    3318:	f69ff06f          	j	3280 <__d2b+0x98>
    331c:	00812683          	lw	a3,8(sp)
    3320:	fc1ff06f          	j	32e0 <__d2b+0xf8>
    3324:	0001d697          	auipc	a3,0x1d
    3328:	47868693          	add	a3,a3,1144 # 2079c <__clz_tab+0x100>
    332c:	00000613          	li	a2,0
    3330:	30a00593          	li	a1,778
    3334:	0001d517          	auipc	a0,0x1d
    3338:	47c50513          	add	a0,a0,1148 # 207b0 <__clz_tab+0x114>
    333c:	071000ef          	jal	3bac <__assert_func>

00003340 <_realloc_r>:
    3340:	fd010113          	add	sp,sp,-48
    3344:	02912223          	sw	s1,36(sp)
    3348:	02112623          	sw	ra,44(sp)
    334c:	02812423          	sw	s0,40(sp)
    3350:	03212023          	sw	s2,32(sp)
    3354:	01312e23          	sw	s3,28(sp)
    3358:	01412c23          	sw	s4,24(sp)
    335c:	01512a23          	sw	s5,20(sp)
    3360:	01612823          	sw	s6,16(sp)
    3364:	01712623          	sw	s7,12(sp)
    3368:	01812423          	sw	s8,8(sp)
    336c:	00060493          	mv	s1,a2
    3370:	1c058263          	beqz	a1,3534 <_realloc_r+0x1f4>
    3374:	00058413          	mv	s0,a1
    3378:	00050913          	mv	s2,a0
    337c:	a88ff0ef          	jal	2604 <__malloc_lock>
    3380:	ffc42703          	lw	a4,-4(s0)
    3384:	00b48793          	add	a5,s1,11
    3388:	01600693          	li	a3,22
    338c:	ff840a93          	add	s5,s0,-8
    3390:	ffc77993          	and	s3,a4,-4
    3394:	0ef6f663          	bgeu	a3,a5,3480 <_realloc_r+0x140>
    3398:	ff87fa13          	and	s4,a5,-8
    339c:	0e07c663          	bltz	a5,3488 <_realloc_r+0x148>
    33a0:	0e9a6463          	bltu	s4,s1,3488 <_realloc_r+0x148>
    33a4:	1149d463          	bge	s3,s4,34ac <_realloc_r+0x16c>
    33a8:	0001ec17          	auipc	s8,0x1e
    33ac:	d38c0c13          	add	s8,s8,-712 # 210e0 <__malloc_av_>
    33b0:	008c2603          	lw	a2,8(s8)
    33b4:	013a86b3          	add	a3,s5,s3
    33b8:	0046a783          	lw	a5,4(a3)
    33bc:	1cd60e63          	beq	a2,a3,3598 <_realloc_r+0x258>
    33c0:	ffe7f613          	and	a2,a5,-2
    33c4:	00c68633          	add	a2,a3,a2
    33c8:	00462603          	lw	a2,4(a2)
    33cc:	00167613          	and	a2,a2,1
    33d0:	14061463          	bnez	a2,3518 <_realloc_r+0x1d8>
    33d4:	ffc7f793          	and	a5,a5,-4
    33d8:	00f98633          	add	a2,s3,a5
    33dc:	0b465e63          	bge	a2,s4,3498 <_realloc_r+0x158>
    33e0:	00177713          	and	a4,a4,1
    33e4:	02071463          	bnez	a4,340c <_realloc_r+0xcc>
    33e8:	ff842b83          	lw	s7,-8(s0)
    33ec:	417a8bb3          	sub	s7,s5,s7
    33f0:	004ba703          	lw	a4,4(s7)
    33f4:	ffc77713          	and	a4,a4,-4
    33f8:	00e787b3          	add	a5,a5,a4
    33fc:	01378b33          	add	s6,a5,s3
    3400:	334b5463          	bge	s6,s4,3728 <_realloc_r+0x3e8>
    3404:	00e98b33          	add	s6,s3,a4
    3408:	294b5663          	bge	s6,s4,3694 <_realloc_r+0x354>
    340c:	00048593          	mv	a1,s1
    3410:	00090513          	mv	a0,s2
    3414:	ebcfe0ef          	jal	1ad0 <_malloc_r>
    3418:	00050493          	mv	s1,a0
    341c:	40050263          	beqz	a0,3820 <_realloc_r+0x4e0>
    3420:	ffc42783          	lw	a5,-4(s0)
    3424:	ff850713          	add	a4,a0,-8
    3428:	ffe7f793          	and	a5,a5,-2
    342c:	00fa87b3          	add	a5,s5,a5
    3430:	24e78a63          	beq	a5,a4,3684 <_realloc_r+0x344>
    3434:	ffc98613          	add	a2,s3,-4
    3438:	02400793          	li	a5,36
    343c:	2ec7e063          	bltu	a5,a2,371c <_realloc_r+0x3dc>
    3440:	01300713          	li	a4,19
    3444:	20c76e63          	bltu	a4,a2,3660 <_realloc_r+0x320>
    3448:	00050793          	mv	a5,a0
    344c:	00040713          	mv	a4,s0
    3450:	00072683          	lw	a3,0(a4)
    3454:	00d7a023          	sw	a3,0(a5)
    3458:	00472683          	lw	a3,4(a4)
    345c:	00d7a223          	sw	a3,4(a5)
    3460:	00872703          	lw	a4,8(a4)
    3464:	00e7a423          	sw	a4,8(a5)
    3468:	00090513          	mv	a0,s2
    346c:	00040593          	mv	a1,s0
    3470:	2d4020ef          	jal	5744 <_free_r>
    3474:	00090513          	mv	a0,s2
    3478:	990ff0ef          	jal	2608 <__malloc_unlock>
    347c:	0680006f          	j	34e4 <_realloc_r+0x1a4>
    3480:	01000a13          	li	s4,16
    3484:	f29a70e3          	bgeu	s4,s1,33a4 <_realloc_r+0x64>
    3488:	00c00793          	li	a5,12
    348c:	00f92023          	sw	a5,0(s2)
    3490:	00000493          	li	s1,0
    3494:	0500006f          	j	34e4 <_realloc_r+0x1a4>
    3498:	00c6a783          	lw	a5,12(a3)
    349c:	0086a703          	lw	a4,8(a3)
    34a0:	00060993          	mv	s3,a2
    34a4:	00f72623          	sw	a5,12(a4)
    34a8:	00e7a423          	sw	a4,8(a5)
    34ac:	004aa783          	lw	a5,4(s5)
    34b0:	414986b3          	sub	a3,s3,s4
    34b4:	00f00613          	li	a2,15
    34b8:	0017f793          	and	a5,a5,1
    34bc:	013a8733          	add	a4,s5,s3
    34c0:	0ad66463          	bltu	a2,a3,3568 <_realloc_r+0x228>
    34c4:	0137e7b3          	or	a5,a5,s3
    34c8:	00faa223          	sw	a5,4(s5)
    34cc:	00472783          	lw	a5,4(a4)
    34d0:	0017e793          	or	a5,a5,1
    34d4:	00f72223          	sw	a5,4(a4)
    34d8:	00090513          	mv	a0,s2
    34dc:	92cff0ef          	jal	2608 <__malloc_unlock>
    34e0:	00040493          	mv	s1,s0
    34e4:	02c12083          	lw	ra,44(sp)
    34e8:	02812403          	lw	s0,40(sp)
    34ec:	02012903          	lw	s2,32(sp)
    34f0:	01c12983          	lw	s3,28(sp)
    34f4:	01812a03          	lw	s4,24(sp)
    34f8:	01412a83          	lw	s5,20(sp)
    34fc:	01012b03          	lw	s6,16(sp)
    3500:	00c12b83          	lw	s7,12(sp)
    3504:	00812c03          	lw	s8,8(sp)
    3508:	00048513          	mv	a0,s1
    350c:	02412483          	lw	s1,36(sp)
    3510:	03010113          	add	sp,sp,48
    3514:	00008067          	ret
    3518:	00177713          	and	a4,a4,1
    351c:	ee0718e3          	bnez	a4,340c <_realloc_r+0xcc>
    3520:	ff842b83          	lw	s7,-8(s0)
    3524:	417a8bb3          	sub	s7,s5,s7
    3528:	004ba703          	lw	a4,4(s7)
    352c:	ffc77713          	and	a4,a4,-4
    3530:	ed5ff06f          	j	3404 <_realloc_r+0xc4>
    3534:	02812403          	lw	s0,40(sp)
    3538:	02c12083          	lw	ra,44(sp)
    353c:	02412483          	lw	s1,36(sp)
    3540:	02012903          	lw	s2,32(sp)
    3544:	01c12983          	lw	s3,28(sp)
    3548:	01812a03          	lw	s4,24(sp)
    354c:	01412a83          	lw	s5,20(sp)
    3550:	01012b03          	lw	s6,16(sp)
    3554:	00c12b83          	lw	s7,12(sp)
    3558:	00812c03          	lw	s8,8(sp)
    355c:	00060593          	mv	a1,a2
    3560:	03010113          	add	sp,sp,48
    3564:	d6cfe06f          	j	1ad0 <_malloc_r>
    3568:	0147e7b3          	or	a5,a5,s4
    356c:	00faa223          	sw	a5,4(s5)
    3570:	014a85b3          	add	a1,s5,s4
    3574:	0016e693          	or	a3,a3,1
    3578:	00d5a223          	sw	a3,4(a1)
    357c:	00472783          	lw	a5,4(a4)
    3580:	00858593          	add	a1,a1,8
    3584:	00090513          	mv	a0,s2
    3588:	0017e793          	or	a5,a5,1
    358c:	00f72223          	sw	a5,4(a4)
    3590:	1b4020ef          	jal	5744 <_free_r>
    3594:	f45ff06f          	j	34d8 <_realloc_r+0x198>
    3598:	ffc7f793          	and	a5,a5,-4
    359c:	013786b3          	add	a3,a5,s3
    35a0:	010a0613          	add	a2,s4,16
    35a4:	22c6de63          	bge	a3,a2,37e0 <_realloc_r+0x4a0>
    35a8:	00177713          	and	a4,a4,1
    35ac:	e60710e3          	bnez	a4,340c <_realloc_r+0xcc>
    35b0:	ff842b83          	lw	s7,-8(s0)
    35b4:	417a8bb3          	sub	s7,s5,s7
    35b8:	004ba703          	lw	a4,4(s7)
    35bc:	ffc77713          	and	a4,a4,-4
    35c0:	00e787b3          	add	a5,a5,a4
    35c4:	01378b33          	add	s6,a5,s3
    35c8:	e2cb4ee3          	blt	s6,a2,3404 <_realloc_r+0xc4>
    35cc:	00cba783          	lw	a5,12(s7)
    35d0:	008ba703          	lw	a4,8(s7)
    35d4:	ffc98613          	add	a2,s3,-4
    35d8:	02400693          	li	a3,36
    35dc:	00f72623          	sw	a5,12(a4)
    35e0:	00e7a423          	sw	a4,8(a5)
    35e4:	008b8493          	add	s1,s7,8
    35e8:	26c6e263          	bltu	a3,a2,384c <_realloc_r+0x50c>
    35ec:	01300713          	li	a4,19
    35f0:	00048793          	mv	a5,s1
    35f4:	02c77263          	bgeu	a4,a2,3618 <_realloc_r+0x2d8>
    35f8:	00042703          	lw	a4,0(s0)
    35fc:	01b00793          	li	a5,27
    3600:	00eba423          	sw	a4,8(s7)
    3604:	00442703          	lw	a4,4(s0)
    3608:	00eba623          	sw	a4,12(s7)
    360c:	24c7e863          	bltu	a5,a2,385c <_realloc_r+0x51c>
    3610:	00840413          	add	s0,s0,8
    3614:	010b8793          	add	a5,s7,16
    3618:	00042703          	lw	a4,0(s0)
    361c:	00e7a023          	sw	a4,0(a5)
    3620:	00442703          	lw	a4,4(s0)
    3624:	00e7a223          	sw	a4,4(a5)
    3628:	00842703          	lw	a4,8(s0)
    362c:	00e7a423          	sw	a4,8(a5)
    3630:	014b8733          	add	a4,s7,s4
    3634:	414b07b3          	sub	a5,s6,s4
    3638:	00ec2423          	sw	a4,8(s8)
    363c:	0017e793          	or	a5,a5,1
    3640:	00f72223          	sw	a5,4(a4)
    3644:	004ba783          	lw	a5,4(s7)
    3648:	00090513          	mv	a0,s2
    364c:	0017f793          	and	a5,a5,1
    3650:	0147e7b3          	or	a5,a5,s4
    3654:	00fba223          	sw	a5,4(s7)
    3658:	fb1fe0ef          	jal	2608 <__malloc_unlock>
    365c:	e89ff06f          	j	34e4 <_realloc_r+0x1a4>
    3660:	00042683          	lw	a3,0(s0)
    3664:	01b00713          	li	a4,27
    3668:	00d52023          	sw	a3,0(a0)
    366c:	00442683          	lw	a3,4(s0)
    3670:	00d52223          	sw	a3,4(a0)
    3674:	14c76663          	bltu	a4,a2,37c0 <_realloc_r+0x480>
    3678:	00840713          	add	a4,s0,8
    367c:	00850793          	add	a5,a0,8
    3680:	dd1ff06f          	j	3450 <_realloc_r+0x110>
    3684:	ffc52783          	lw	a5,-4(a0)
    3688:	ffc7f793          	and	a5,a5,-4
    368c:	00f989b3          	add	s3,s3,a5
    3690:	e1dff06f          	j	34ac <_realloc_r+0x16c>
    3694:	00cba783          	lw	a5,12(s7)
    3698:	008ba703          	lw	a4,8(s7)
    369c:	ffc98613          	add	a2,s3,-4
    36a0:	02400693          	li	a3,36
    36a4:	00f72623          	sw	a5,12(a4)
    36a8:	00e7a423          	sw	a4,8(a5)
    36ac:	008b8493          	add	s1,s7,8
    36b0:	10c6e063          	bltu	a3,a2,37b0 <_realloc_r+0x470>
    36b4:	01300713          	li	a4,19
    36b8:	00048793          	mv	a5,s1
    36bc:	02c77c63          	bgeu	a4,a2,36f4 <_realloc_r+0x3b4>
    36c0:	00042703          	lw	a4,0(s0)
    36c4:	01b00793          	li	a5,27
    36c8:	00eba423          	sw	a4,8(s7)
    36cc:	00442703          	lw	a4,4(s0)
    36d0:	00eba623          	sw	a4,12(s7)
    36d4:	14c7f063          	bgeu	a5,a2,3814 <_realloc_r+0x4d4>
    36d8:	00842783          	lw	a5,8(s0)
    36dc:	00fba823          	sw	a5,16(s7)
    36e0:	00c42783          	lw	a5,12(s0)
    36e4:	00fbaa23          	sw	a5,20(s7)
    36e8:	0ad60663          	beq	a2,a3,3794 <_realloc_r+0x454>
    36ec:	01040413          	add	s0,s0,16
    36f0:	018b8793          	add	a5,s7,24
    36f4:	00042703          	lw	a4,0(s0)
    36f8:	00e7a023          	sw	a4,0(a5)
    36fc:	00442703          	lw	a4,4(s0)
    3700:	00e7a223          	sw	a4,4(a5)
    3704:	00842703          	lw	a4,8(s0)
    3708:	00e7a423          	sw	a4,8(a5)
    370c:	00048413          	mv	s0,s1
    3710:	000b0993          	mv	s3,s6
    3714:	000b8a93          	mv	s5,s7
    3718:	d95ff06f          	j	34ac <_realloc_r+0x16c>
    371c:	00040593          	mv	a1,s0
    3720:	cedfe0ef          	jal	240c <memmove>
    3724:	d45ff06f          	j	3468 <_realloc_r+0x128>
    3728:	00c6a783          	lw	a5,12(a3)
    372c:	0086a703          	lw	a4,8(a3)
    3730:	ffc98613          	add	a2,s3,-4
    3734:	02400693          	li	a3,36
    3738:	00f72623          	sw	a5,12(a4)
    373c:	00e7a423          	sw	a4,8(a5)
    3740:	008ba703          	lw	a4,8(s7)
    3744:	00cba783          	lw	a5,12(s7)
    3748:	008b8493          	add	s1,s7,8
    374c:	00f72623          	sw	a5,12(a4)
    3750:	00e7a423          	sw	a4,8(a5)
    3754:	04c6ee63          	bltu	a3,a2,37b0 <_realloc_r+0x470>
    3758:	01300713          	li	a4,19
    375c:	00048793          	mv	a5,s1
    3760:	f8c77ae3          	bgeu	a4,a2,36f4 <_realloc_r+0x3b4>
    3764:	00042703          	lw	a4,0(s0)
    3768:	01b00793          	li	a5,27
    376c:	00eba423          	sw	a4,8(s7)
    3770:	00442703          	lw	a4,4(s0)
    3774:	00eba623          	sw	a4,12(s7)
    3778:	08c7fe63          	bgeu	a5,a2,3814 <_realloc_r+0x4d4>
    377c:	00842703          	lw	a4,8(s0)
    3780:	02400793          	li	a5,36
    3784:	00eba823          	sw	a4,16(s7)
    3788:	00c42703          	lw	a4,12(s0)
    378c:	00ebaa23          	sw	a4,20(s7)
    3790:	f4f61ee3          	bne	a2,a5,36ec <_realloc_r+0x3ac>
    3794:	01042703          	lw	a4,16(s0)
    3798:	020b8793          	add	a5,s7,32
    379c:	01840413          	add	s0,s0,24
    37a0:	00ebac23          	sw	a4,24(s7)
    37a4:	ffc42703          	lw	a4,-4(s0)
    37a8:	00ebae23          	sw	a4,28(s7)
    37ac:	f49ff06f          	j	36f4 <_realloc_r+0x3b4>
    37b0:	00040593          	mv	a1,s0
    37b4:	00048513          	mv	a0,s1
    37b8:	c55fe0ef          	jal	240c <memmove>
    37bc:	f51ff06f          	j	370c <_realloc_r+0x3cc>
    37c0:	00842703          	lw	a4,8(s0)
    37c4:	00e52423          	sw	a4,8(a0)
    37c8:	00c42703          	lw	a4,12(s0)
    37cc:	00e52623          	sw	a4,12(a0)
    37d0:	06f60063          	beq	a2,a5,3830 <_realloc_r+0x4f0>
    37d4:	01040713          	add	a4,s0,16
    37d8:	01050793          	add	a5,a0,16
    37dc:	c75ff06f          	j	3450 <_realloc_r+0x110>
    37e0:	014a8ab3          	add	s5,s5,s4
    37e4:	414687b3          	sub	a5,a3,s4
    37e8:	015c2423          	sw	s5,8(s8)
    37ec:	0017e793          	or	a5,a5,1
    37f0:	00faa223          	sw	a5,4(s5)
    37f4:	ffc42783          	lw	a5,-4(s0)
    37f8:	00090513          	mv	a0,s2
    37fc:	00040493          	mv	s1,s0
    3800:	0017f793          	and	a5,a5,1
    3804:	0147e7b3          	or	a5,a5,s4
    3808:	fef42e23          	sw	a5,-4(s0)
    380c:	dfdfe0ef          	jal	2608 <__malloc_unlock>
    3810:	cd5ff06f          	j	34e4 <_realloc_r+0x1a4>
    3814:	00840413          	add	s0,s0,8
    3818:	010b8793          	add	a5,s7,16
    381c:	ed9ff06f          	j	36f4 <_realloc_r+0x3b4>
    3820:	00090513          	mv	a0,s2
    3824:	de5fe0ef          	jal	2608 <__malloc_unlock>
    3828:	00000493          	li	s1,0
    382c:	cb9ff06f          	j	34e4 <_realloc_r+0x1a4>
    3830:	01042683          	lw	a3,16(s0)
    3834:	01840713          	add	a4,s0,24
    3838:	01850793          	add	a5,a0,24
    383c:	00d52823          	sw	a3,16(a0)
    3840:	01442683          	lw	a3,20(s0)
    3844:	00d52a23          	sw	a3,20(a0)
    3848:	c09ff06f          	j	3450 <_realloc_r+0x110>
    384c:	00040593          	mv	a1,s0
    3850:	00048513          	mv	a0,s1
    3854:	bb9fe0ef          	jal	240c <memmove>
    3858:	dd9ff06f          	j	3630 <_realloc_r+0x2f0>
    385c:	00842783          	lw	a5,8(s0)
    3860:	00fba823          	sw	a5,16(s7)
    3864:	00c42783          	lw	a5,12(s0)
    3868:	00fbaa23          	sw	a5,20(s7)
    386c:	00d60863          	beq	a2,a3,387c <_realloc_r+0x53c>
    3870:	01040413          	add	s0,s0,16
    3874:	018b8793          	add	a5,s7,24
    3878:	da1ff06f          	j	3618 <_realloc_r+0x2d8>
    387c:	01042703          	lw	a4,16(s0)
    3880:	020b8793          	add	a5,s7,32
    3884:	01840413          	add	s0,s0,24
    3888:	00ebac23          	sw	a4,24(s7)
    388c:	ffc42703          	lw	a4,-4(s0)
    3890:	00ebae23          	sw	a4,28(s7)
    3894:	d85ff06f          	j	3618 <_realloc_r+0x2d8>

00003898 <_sbrk_r>:
    3898:	ff010113          	add	sp,sp,-16
    389c:	00812423          	sw	s0,8(sp)
    38a0:	00050413          	mv	s0,a0
    38a4:	00058513          	mv	a0,a1
    38a8:	8a01a023          	sw	zero,-1888(gp) # 216f8 <errno>
    38ac:	00112623          	sw	ra,12(sp)
    38b0:	130050ef          	jal	89e0 <_sbrk>
    38b4:	fff00793          	li	a5,-1
    38b8:	00f50a63          	beq	a0,a5,38cc <_sbrk_r+0x34>
    38bc:	00c12083          	lw	ra,12(sp)
    38c0:	00812403          	lw	s0,8(sp)
    38c4:	01010113          	add	sp,sp,16
    38c8:	00008067          	ret
    38cc:	8a01a783          	lw	a5,-1888(gp) # 216f8 <errno>
    38d0:	fe0786e3          	beqz	a5,38bc <_sbrk_r+0x24>
    38d4:	00c12083          	lw	ra,12(sp)
    38d8:	00f42023          	sw	a5,0(s0)
    38dc:	00812403          	lw	s0,8(sp)
    38e0:	01010113          	add	sp,sp,16
    38e4:	00008067          	ret

000038e8 <strcmp>:
    38e8:	00b56733          	or	a4,a0,a1
    38ec:	fff00393          	li	t2,-1
    38f0:	00377713          	and	a4,a4,3
    38f4:	10071063          	bnez	a4,39f4 <strcmp+0x10c>
    38f8:	7f7f87b7          	lui	a5,0x7f7f8
    38fc:	f7f78793          	add	a5,a5,-129 # 7f7f7f7f <__freertos_irq_stack_top+0x7f7c7f7f>
    3900:	00052603          	lw	a2,0(a0)
    3904:	0005a683          	lw	a3,0(a1)
    3908:	00f672b3          	and	t0,a2,a5
    390c:	00f66333          	or	t1,a2,a5
    3910:	00f282b3          	add	t0,t0,a5
    3914:	0062e2b3          	or	t0,t0,t1
    3918:	10729263          	bne	t0,t2,3a1c <strcmp+0x134>
    391c:	08d61663          	bne	a2,a3,39a8 <strcmp+0xc0>
    3920:	00452603          	lw	a2,4(a0)
    3924:	0045a683          	lw	a3,4(a1)
    3928:	00f672b3          	and	t0,a2,a5
    392c:	00f66333          	or	t1,a2,a5
    3930:	00f282b3          	add	t0,t0,a5
    3934:	0062e2b3          	or	t0,t0,t1
    3938:	0c729e63          	bne	t0,t2,3a14 <strcmp+0x12c>
    393c:	06d61663          	bne	a2,a3,39a8 <strcmp+0xc0>
    3940:	00852603          	lw	a2,8(a0)
    3944:	0085a683          	lw	a3,8(a1)
    3948:	00f672b3          	and	t0,a2,a5
    394c:	00f66333          	or	t1,a2,a5
    3950:	00f282b3          	add	t0,t0,a5
    3954:	0062e2b3          	or	t0,t0,t1
    3958:	0c729863          	bne	t0,t2,3a28 <strcmp+0x140>
    395c:	04d61663          	bne	a2,a3,39a8 <strcmp+0xc0>
    3960:	00c52603          	lw	a2,12(a0)
    3964:	00c5a683          	lw	a3,12(a1)
    3968:	00f672b3          	and	t0,a2,a5
    396c:	00f66333          	or	t1,a2,a5
    3970:	00f282b3          	add	t0,t0,a5
    3974:	0062e2b3          	or	t0,t0,t1
    3978:	0c729263          	bne	t0,t2,3a3c <strcmp+0x154>
    397c:	02d61663          	bne	a2,a3,39a8 <strcmp+0xc0>
    3980:	01052603          	lw	a2,16(a0)
    3984:	0105a683          	lw	a3,16(a1)
    3988:	00f672b3          	and	t0,a2,a5
    398c:	00f66333          	or	t1,a2,a5
    3990:	00f282b3          	add	t0,t0,a5
    3994:	0062e2b3          	or	t0,t0,t1
    3998:	0a729c63          	bne	t0,t2,3a50 <strcmp+0x168>
    399c:	01450513          	add	a0,a0,20
    39a0:	01458593          	add	a1,a1,20
    39a4:	f4d60ee3          	beq	a2,a3,3900 <strcmp+0x18>
    39a8:	01061713          	sll	a4,a2,0x10
    39ac:	01069793          	sll	a5,a3,0x10
    39b0:	00f71e63          	bne	a4,a5,39cc <strcmp+0xe4>
    39b4:	01065713          	srl	a4,a2,0x10
    39b8:	0106d793          	srl	a5,a3,0x10
    39bc:	40f70533          	sub	a0,a4,a5
    39c0:	0ff57593          	zext.b	a1,a0
    39c4:	02059063          	bnez	a1,39e4 <strcmp+0xfc>
    39c8:	00008067          	ret
    39cc:	01075713          	srl	a4,a4,0x10
    39d0:	0107d793          	srl	a5,a5,0x10
    39d4:	40f70533          	sub	a0,a4,a5
    39d8:	0ff57593          	zext.b	a1,a0
    39dc:	00059463          	bnez	a1,39e4 <strcmp+0xfc>
    39e0:	00008067          	ret
    39e4:	0ff77713          	zext.b	a4,a4
    39e8:	0ff7f793          	zext.b	a5,a5
    39ec:	40f70533          	sub	a0,a4,a5
    39f0:	00008067          	ret
    39f4:	00054603          	lbu	a2,0(a0)
    39f8:	0005c683          	lbu	a3,0(a1)
    39fc:	00150513          	add	a0,a0,1
    3a00:	00158593          	add	a1,a1,1
    3a04:	00d61463          	bne	a2,a3,3a0c <strcmp+0x124>
    3a08:	fe0616e3          	bnez	a2,39f4 <strcmp+0x10c>
    3a0c:	40d60533          	sub	a0,a2,a3
    3a10:	00008067          	ret
    3a14:	00450513          	add	a0,a0,4
    3a18:	00458593          	add	a1,a1,4
    3a1c:	fcd61ce3          	bne	a2,a3,39f4 <strcmp+0x10c>
    3a20:	00000513          	li	a0,0
    3a24:	00008067          	ret
    3a28:	00850513          	add	a0,a0,8
    3a2c:	00858593          	add	a1,a1,8
    3a30:	fcd612e3          	bne	a2,a3,39f4 <strcmp+0x10c>
    3a34:	00000513          	li	a0,0
    3a38:	00008067          	ret
    3a3c:	00c50513          	add	a0,a0,12
    3a40:	00c58593          	add	a1,a1,12
    3a44:	fad618e3          	bne	a2,a3,39f4 <strcmp+0x10c>
    3a48:	00000513          	li	a0,0
    3a4c:	00008067          	ret
    3a50:	01050513          	add	a0,a0,16
    3a54:	01058593          	add	a1,a1,16
    3a58:	f8d61ee3          	bne	a2,a3,39f4 <strcmp+0x10c>
    3a5c:	00000513          	li	a0,0
    3a60:	00008067          	ret

00003a64 <strcpy>:
    3a64:	00b567b3          	or	a5,a0,a1
    3a68:	0037f793          	and	a5,a5,3
    3a6c:	08079263          	bnez	a5,3af0 <strcpy+0x8c>
    3a70:	0005a703          	lw	a4,0(a1)
    3a74:	7f7f86b7          	lui	a3,0x7f7f8
    3a78:	f7f68693          	add	a3,a3,-129 # 7f7f7f7f <__freertos_irq_stack_top+0x7f7c7f7f>
    3a7c:	00d777b3          	and	a5,a4,a3
    3a80:	00d787b3          	add	a5,a5,a3
    3a84:	00e7e7b3          	or	a5,a5,a4
    3a88:	00d7e7b3          	or	a5,a5,a3
    3a8c:	fff00613          	li	a2,-1
    3a90:	06c79e63          	bne	a5,a2,3b0c <strcpy+0xa8>
    3a94:	00050613          	mv	a2,a0
    3a98:	fff00813          	li	a6,-1
    3a9c:	00e62023          	sw	a4,0(a2)
    3aa0:	0045a703          	lw	a4,4(a1)
    3aa4:	00458593          	add	a1,a1,4
    3aa8:	00460613          	add	a2,a2,4
    3aac:	00d777b3          	and	a5,a4,a3
    3ab0:	00d787b3          	add	a5,a5,a3
    3ab4:	00e7e7b3          	or	a5,a5,a4
    3ab8:	00d7e7b3          	or	a5,a5,a3
    3abc:	ff0780e3          	beq	a5,a6,3a9c <strcpy+0x38>
    3ac0:	0005c783          	lbu	a5,0(a1)
    3ac4:	0015c703          	lbu	a4,1(a1)
    3ac8:	0025c683          	lbu	a3,2(a1)
    3acc:	00f60023          	sb	a5,0(a2)
    3ad0:	00078a63          	beqz	a5,3ae4 <strcpy+0x80>
    3ad4:	00e600a3          	sb	a4,1(a2)
    3ad8:	00070663          	beqz	a4,3ae4 <strcpy+0x80>
    3adc:	00d60123          	sb	a3,2(a2)
    3ae0:	00069463          	bnez	a3,3ae8 <strcpy+0x84>
    3ae4:	00008067          	ret
    3ae8:	000601a3          	sb	zero,3(a2)
    3aec:	00008067          	ret
    3af0:	00050793          	mv	a5,a0
    3af4:	0005c703          	lbu	a4,0(a1)
    3af8:	00178793          	add	a5,a5,1
    3afc:	00158593          	add	a1,a1,1
    3b00:	fee78fa3          	sb	a4,-1(a5)
    3b04:	fe0718e3          	bnez	a4,3af4 <strcpy+0x90>
    3b08:	00008067          	ret
    3b0c:	00050613          	mv	a2,a0
    3b10:	fb1ff06f          	j	3ac0 <strcpy+0x5c>

00003b14 <strnlen>:
    3b14:	00b506b3          	add	a3,a0,a1
    3b18:	00050793          	mv	a5,a0
    3b1c:	00059863          	bnez	a1,3b2c <strnlen+0x18>
    3b20:	0240006f          	j	3b44 <strnlen+0x30>
    3b24:	00178793          	add	a5,a5,1
    3b28:	00f68a63          	beq	a3,a5,3b3c <strnlen+0x28>
    3b2c:	0007c703          	lbu	a4,0(a5)
    3b30:	fe071ae3          	bnez	a4,3b24 <strnlen+0x10>
    3b34:	40a78533          	sub	a0,a5,a0
    3b38:	00008067          	ret
    3b3c:	40a68533          	sub	a0,a3,a0
    3b40:	00008067          	ret
    3b44:	00000513          	li	a0,0
    3b48:	00008067          	ret

00003b4c <time>:
    3b4c:	fe010113          	add	sp,sp,-32
    3b50:	00812c23          	sw	s0,24(sp)
    3b54:	00000613          	li	a2,0
    3b58:	00050413          	mv	s0,a0
    3b5c:	00010593          	mv	a1,sp
    3b60:	0001e517          	auipc	a0,0x1e
    3b64:	af852503          	lw	a0,-1288(a0) # 21658 <_impure_ptr>
    3b68:	00112e23          	sw	ra,28(sp)
    3b6c:	6e1010ef          	jal	5a4c <_gettimeofday_r>
    3b70:	02054863          	bltz	a0,3ba0 <time+0x54>
    3b74:	00012703          	lw	a4,0(sp)
    3b78:	00412783          	lw	a5,4(sp)
    3b7c:	00040663          	beqz	s0,3b88 <time+0x3c>
    3b80:	00e42023          	sw	a4,0(s0)
    3b84:	00f42223          	sw	a5,4(s0)
    3b88:	01c12083          	lw	ra,28(sp)
    3b8c:	01812403          	lw	s0,24(sp)
    3b90:	00070513          	mv	a0,a4
    3b94:	00078593          	mv	a1,a5
    3b98:	02010113          	add	sp,sp,32
    3b9c:	00008067          	ret
    3ba0:	fff00713          	li	a4,-1
    3ba4:	fff00793          	li	a5,-1
    3ba8:	fd5ff06f          	j	3b7c <time+0x30>

00003bac <__assert_func>:
    3bac:	ff010113          	add	sp,sp,-16
    3bb0:	00068793          	mv	a5,a3
    3bb4:	0001e717          	auipc	a4,0x1e
    3bb8:	aa472703          	lw	a4,-1372(a4) # 21658 <_impure_ptr>
    3bbc:	00060813          	mv	a6,a2
    3bc0:	00112623          	sw	ra,12(sp)
    3bc4:	00c72883          	lw	a7,12(a4)
    3bc8:	00078613          	mv	a2,a5
    3bcc:	00050693          	mv	a3,a0
    3bd0:	00058713          	mv	a4,a1
    3bd4:	0001d797          	auipc	a5,0x1d
    3bd8:	d2c78793          	add	a5,a5,-724 # 20900 <__mprec_tens+0xc8>
    3bdc:	00080c63          	beqz	a6,3bf4 <__assert_func+0x48>
    3be0:	0001d597          	auipc	a1,0x1d
    3be4:	d3058593          	add	a1,a1,-720 # 20910 <__mprec_tens+0xd8>
    3be8:	00088513          	mv	a0,a7
    3bec:	1cd010ef          	jal	55b8 <fiprintf>
    3bf0:	540030ef          	jal	7130 <abort>
    3bf4:	0001c797          	auipc	a5,0x1c
    3bf8:	78478793          	add	a5,a5,1924 # 20378 <_data+0x378>
    3bfc:	00078813          	mv	a6,a5
    3c00:	fe1ff06f          	j	3be0 <__assert_func+0x34>

00003c04 <_calloc_r>:
    3c04:	02c5b7b3          	mulhu	a5,a1,a2
    3c08:	ff010113          	add	sp,sp,-16
    3c0c:	00112623          	sw	ra,12(sp)
    3c10:	00812423          	sw	s0,8(sp)
    3c14:	02c585b3          	mul	a1,a1,a2
    3c18:	0a079063          	bnez	a5,3cb8 <_calloc_r+0xb4>
    3c1c:	eb5fd0ef          	jal	1ad0 <_malloc_r>
    3c20:	00050413          	mv	s0,a0
    3c24:	0a050063          	beqz	a0,3cc4 <_calloc_r+0xc0>
    3c28:	ffc52603          	lw	a2,-4(a0)
    3c2c:	02400713          	li	a4,36
    3c30:	ffc67613          	and	a2,a2,-4
    3c34:	ffc60613          	add	a2,a2,-4
    3c38:	04c76863          	bltu	a4,a2,3c88 <_calloc_r+0x84>
    3c3c:	01300693          	li	a3,19
    3c40:	00050793          	mv	a5,a0
    3c44:	02c6f263          	bgeu	a3,a2,3c68 <_calloc_r+0x64>
    3c48:	00052023          	sw	zero,0(a0)
    3c4c:	00052223          	sw	zero,4(a0)
    3c50:	01b00793          	li	a5,27
    3c54:	04c7f863          	bgeu	a5,a2,3ca4 <_calloc_r+0xa0>
    3c58:	00052423          	sw	zero,8(a0)
    3c5c:	00052623          	sw	zero,12(a0)
    3c60:	01050793          	add	a5,a0,16
    3c64:	06e60c63          	beq	a2,a4,3cdc <_calloc_r+0xd8>
    3c68:	0007a023          	sw	zero,0(a5)
    3c6c:	0007a223          	sw	zero,4(a5)
    3c70:	0007a423          	sw	zero,8(a5)
    3c74:	00c12083          	lw	ra,12(sp)
    3c78:	00040513          	mv	a0,s0
    3c7c:	00812403          	lw	s0,8(sp)
    3c80:	01010113          	add	sp,sp,16
    3c84:	00008067          	ret
    3c88:	00000593          	li	a1,0
    3c8c:	89dfe0ef          	jal	2528 <memset>
    3c90:	00c12083          	lw	ra,12(sp)
    3c94:	00040513          	mv	a0,s0
    3c98:	00812403          	lw	s0,8(sp)
    3c9c:	01010113          	add	sp,sp,16
    3ca0:	00008067          	ret
    3ca4:	00850793          	add	a5,a0,8
    3ca8:	0007a023          	sw	zero,0(a5)
    3cac:	0007a223          	sw	zero,4(a5)
    3cb0:	0007a423          	sw	zero,8(a5)
    3cb4:	fc1ff06f          	j	3c74 <_calloc_r+0x70>
    3cb8:	0f5010ef          	jal	55ac <__errno>
    3cbc:	00c00793          	li	a5,12
    3cc0:	00f52023          	sw	a5,0(a0)
    3cc4:	00000413          	li	s0,0
    3cc8:	00c12083          	lw	ra,12(sp)
    3ccc:	00040513          	mv	a0,s0
    3cd0:	00812403          	lw	s0,8(sp)
    3cd4:	01010113          	add	sp,sp,16
    3cd8:	00008067          	ret
    3cdc:	00052823          	sw	zero,16(a0)
    3ce0:	01850793          	add	a5,a0,24
    3ce4:	00052a23          	sw	zero,20(a0)
    3ce8:	f81ff06f          	j	3c68 <_calloc_r+0x64>

00003cec <quorem>:
    3cec:	fe010113          	add	sp,sp,-32
    3cf0:	00912a23          	sw	s1,20(sp)
    3cf4:	01052783          	lw	a5,16(a0)
    3cf8:	0105a483          	lw	s1,16(a1)
    3cfc:	00112e23          	sw	ra,28(sp)
    3d00:	00812c23          	sw	s0,24(sp)
    3d04:	01212823          	sw	s2,16(sp)
    3d08:	01312623          	sw	s3,12(sp)
    3d0c:	01412423          	sw	s4,8(sp)
    3d10:	01512223          	sw	s5,4(sp)
    3d14:	1a97c663          	blt	a5,s1,3ec0 <quorem+0x1d4>
    3d18:	fff48493          	add	s1,s1,-1
    3d1c:	00249313          	sll	t1,s1,0x2
    3d20:	01458413          	add	s0,a1,20
    3d24:	006409b3          	add	s3,s0,t1
    3d28:	01450a13          	add	s4,a0,20
    3d2c:	0009a783          	lw	a5,0(s3)
    3d30:	006a0333          	add	t1,s4,t1
    3d34:	00032703          	lw	a4,0(t1)
    3d38:	00178793          	add	a5,a5,1
    3d3c:	00050a93          	mv	s5,a0
    3d40:	02f75933          	divu	s2,a4,a5
    3d44:	0af76a63          	bltu	a4,a5,3df8 <quorem+0x10c>
    3d48:	00010537          	lui	a0,0x10
    3d4c:	00040893          	mv	a7,s0
    3d50:	000a0813          	mv	a6,s4
    3d54:	00000e93          	li	t4,0
    3d58:	00000693          	li	a3,0
    3d5c:	fff50513          	add	a0,a0,-1 # ffff <_data_lma+0x4703>
    3d60:	0008a703          	lw	a4,0(a7)
    3d64:	00082e03          	lw	t3,0(a6)
    3d68:	00480813          	add	a6,a6,4
    3d6c:	00a77633          	and	a2,a4,a0
    3d70:	01075713          	srl	a4,a4,0x10
    3d74:	00ae77b3          	and	a5,t3,a0
    3d78:	010e5e13          	srl	t3,t3,0x10
    3d7c:	00488893          	add	a7,a7,4
    3d80:	03260633          	mul	a2,a2,s2
    3d84:	03270733          	mul	a4,a4,s2
    3d88:	01d60633          	add	a2,a2,t4
    3d8c:	00a67eb3          	and	t4,a2,a0
    3d90:	41d787b3          	sub	a5,a5,t4
    3d94:	01065613          	srl	a2,a2,0x10
    3d98:	00d787b3          	add	a5,a5,a3
    3d9c:	4107d693          	sra	a3,a5,0x10
    3da0:	00a7f7b3          	and	a5,a5,a0
    3da4:	00c70733          	add	a4,a4,a2
    3da8:	00a77633          	and	a2,a4,a0
    3dac:	40c686b3          	sub	a3,a3,a2
    3db0:	01c686b3          	add	a3,a3,t3
    3db4:	01069613          	sll	a2,a3,0x10
    3db8:	00c7e7b3          	or	a5,a5,a2
    3dbc:	fef82e23          	sw	a5,-4(a6)
    3dc0:	01075e93          	srl	t4,a4,0x10
    3dc4:	4106d693          	sra	a3,a3,0x10
    3dc8:	f919fce3          	bgeu	s3,a7,3d60 <quorem+0x74>
    3dcc:	00032783          	lw	a5,0(t1)
    3dd0:	02079463          	bnez	a5,3df8 <quorem+0x10c>
    3dd4:	ffc30313          	add	t1,t1,-4
    3dd8:	006a6863          	bltu	s4,t1,3de8 <quorem+0xfc>
    3ddc:	0180006f          	j	3df4 <quorem+0x108>
    3de0:	fff48493          	add	s1,s1,-1
    3de4:	006a7863          	bgeu	s4,t1,3df4 <quorem+0x108>
    3de8:	00032783          	lw	a5,0(t1)
    3dec:	ffc30313          	add	t1,t1,-4
    3df0:	fe0788e3          	beqz	a5,3de0 <quorem+0xf4>
    3df4:	009aa823          	sw	s1,16(s5)
    3df8:	000a8513          	mv	a0,s5
    3dfc:	944ff0ef          	jal	2f40 <__mcmp>
    3e00:	08054c63          	bltz	a0,3e98 <quorem+0x1ac>
    3e04:	00010537          	lui	a0,0x10
    3e08:	000a0593          	mv	a1,s4
    3e0c:	00000713          	li	a4,0
    3e10:	fff50513          	add	a0,a0,-1 # ffff <_data_lma+0x4703>
    3e14:	0005a683          	lw	a3,0(a1)
    3e18:	00042603          	lw	a2,0(s0)
    3e1c:	00458593          	add	a1,a1,4
    3e20:	00a6f7b3          	and	a5,a3,a0
    3e24:	00a67833          	and	a6,a2,a0
    3e28:	410787b3          	sub	a5,a5,a6
    3e2c:	00e787b3          	add	a5,a5,a4
    3e30:	4107d713          	sra	a4,a5,0x10
    3e34:	01065613          	srl	a2,a2,0x10
    3e38:	0106d693          	srl	a3,a3,0x10
    3e3c:	40c70733          	sub	a4,a4,a2
    3e40:	00d70733          	add	a4,a4,a3
    3e44:	01071693          	sll	a3,a4,0x10
    3e48:	00a7f7b3          	and	a5,a5,a0
    3e4c:	00d7e7b3          	or	a5,a5,a3
    3e50:	00440413          	add	s0,s0,4
    3e54:	fef5ae23          	sw	a5,-4(a1)
    3e58:	41075713          	sra	a4,a4,0x10
    3e5c:	fa89fce3          	bgeu	s3,s0,3e14 <quorem+0x128>
    3e60:	00249793          	sll	a5,s1,0x2
    3e64:	00fa07b3          	add	a5,s4,a5
    3e68:	0007a703          	lw	a4,0(a5)
    3e6c:	02071463          	bnez	a4,3e94 <quorem+0x1a8>
    3e70:	ffc78793          	add	a5,a5,-4
    3e74:	00fa6863          	bltu	s4,a5,3e84 <quorem+0x198>
    3e78:	0180006f          	j	3e90 <quorem+0x1a4>
    3e7c:	fff48493          	add	s1,s1,-1
    3e80:	00fa7863          	bgeu	s4,a5,3e90 <quorem+0x1a4>
    3e84:	0007a703          	lw	a4,0(a5)
    3e88:	ffc78793          	add	a5,a5,-4
    3e8c:	fe0708e3          	beqz	a4,3e7c <quorem+0x190>
    3e90:	009aa823          	sw	s1,16(s5)
    3e94:	00190913          	add	s2,s2,1
    3e98:	00090513          	mv	a0,s2
    3e9c:	01c12083          	lw	ra,28(sp)
    3ea0:	01812403          	lw	s0,24(sp)
    3ea4:	01412483          	lw	s1,20(sp)
    3ea8:	01012903          	lw	s2,16(sp)
    3eac:	00c12983          	lw	s3,12(sp)
    3eb0:	00812a03          	lw	s4,8(sp)
    3eb4:	00412a83          	lw	s5,4(sp)
    3eb8:	02010113          	add	sp,sp,32
    3ebc:	00008067          	ret
    3ec0:	00000513          	li	a0,0
    3ec4:	fd9ff06f          	j	3e9c <quorem+0x1b0>

00003ec8 <_dtoa_r>:
    3ec8:	04052303          	lw	t1,64(a0)
    3ecc:	f5010113          	add	sp,sp,-176
    3ed0:	0a812423          	sw	s0,168(sp)
    3ed4:	0a912223          	sw	s1,164(sp)
    3ed8:	0b212023          	sw	s2,160(sp)
    3edc:	09312e23          	sw	s3,156(sp)
    3ee0:	09a12023          	sw	s10,128(sp)
    3ee4:	07b12e23          	sw	s11,124(sp)
    3ee8:	0a112623          	sw	ra,172(sp)
    3eec:	09412c23          	sw	s4,152(sp)
    3ef0:	09512a23          	sw	s5,148(sp)
    3ef4:	09612823          	sw	s6,144(sp)
    3ef8:	09712623          	sw	s7,140(sp)
    3efc:	09812423          	sw	s8,136(sp)
    3f00:	09912223          	sw	s9,132(sp)
    3f04:	00e12823          	sw	a4,16(sp)
    3f08:	00f12223          	sw	a5,4(sp)
    3f0c:	01112023          	sw	a7,0(sp)
    3f10:	02b12423          	sw	a1,40(sp)
    3f14:	00050413          	mv	s0,a0
    3f18:	00058d93          	mv	s11,a1
    3f1c:	00060493          	mv	s1,a2
    3f20:	00068993          	mv	s3,a3
    3f24:	00080913          	mv	s2,a6
    3f28:	00060d13          	mv	s10,a2
    3f2c:	02030263          	beqz	t1,3f50 <_dtoa_r+0x88>
    3f30:	04452703          	lw	a4,68(a0)
    3f34:	00100793          	li	a5,1
    3f38:	00030593          	mv	a1,t1
    3f3c:	00e797b3          	sll	a5,a5,a4
    3f40:	00e32223          	sw	a4,4(t1)
    3f44:	00f32423          	sw	a5,8(t1)
    3f48:	f6cfe0ef          	jal	26b4 <_Bfree>
    3f4c:	04042023          	sw	zero,64(s0)
    3f50:	00048a93          	mv	s5,s1
    3f54:	00000693          	li	a3,0
    3f58:	0004da63          	bgez	s1,3f6c <_dtoa_r+0xa4>
    3f5c:	00149493          	sll	s1,s1,0x1
    3f60:	0014dd13          	srl	s10,s1,0x1
    3f64:	000d0a93          	mv	s5,s10
    3f68:	00100693          	li	a3,1
    3f6c:	7ff00737          	lui	a4,0x7ff00
    3f70:	00d92023          	sw	a3,0(s2)
    3f74:	00eaf6b3          	and	a3,s5,a4
    3f78:	66e68663          	beq	a3,a4,45e4 <_dtoa_r+0x71c>
    3f7c:	000d8513          	mv	a0,s11
    3f80:	000d0593          	mv	a1,s10
    3f84:	00000613          	li	a2,0
    3f88:	00000693          	li	a3,0
    3f8c:	0f8060ef          	jal	a084 <__eqdf2>
    3f90:	01b12a23          	sw	s11,20(sp)
    3f94:	01a12c23          	sw	s10,24(sp)
    3f98:	06051663          	bnez	a0,4004 <_dtoa_r+0x13c>
    3f9c:	00412703          	lw	a4,4(sp)
    3fa0:	00100793          	li	a5,1
    3fa4:	00f72023          	sw	a5,0(a4) # 7ff00000 <__freertos_irq_stack_top+0x7fed0000>
    3fa8:	00012703          	lw	a4,0(sp)
    3fac:	00070863          	beqz	a4,3fbc <_dtoa_r+0xf4>
    3fb0:	0001d797          	auipc	a5,0x1d
    3fb4:	9a178793          	add	a5,a5,-1631 # 20951 <__mprec_tens+0x119>
    3fb8:	00f72023          	sw	a5,0(a4)
    3fbc:	0001da97          	auipc	s5,0x1d
    3fc0:	994a8a93          	add	s5,s5,-1644 # 20950 <__mprec_tens+0x118>
    3fc4:	0ac12083          	lw	ra,172(sp)
    3fc8:	0a812403          	lw	s0,168(sp)
    3fcc:	0a412483          	lw	s1,164(sp)
    3fd0:	0a012903          	lw	s2,160(sp)
    3fd4:	09c12983          	lw	s3,156(sp)
    3fd8:	09812a03          	lw	s4,152(sp)
    3fdc:	09012b03          	lw	s6,144(sp)
    3fe0:	08c12b83          	lw	s7,140(sp)
    3fe4:	08812c03          	lw	s8,136(sp)
    3fe8:	08412c83          	lw	s9,132(sp)
    3fec:	08012d03          	lw	s10,128(sp)
    3ff0:	07c12d83          	lw	s11,124(sp)
    3ff4:	000a8513          	mv	a0,s5
    3ff8:	09412a83          	lw	s5,148(sp)
    3ffc:	0b010113          	add	sp,sp,176
    4000:	00008067          	ret
    4004:	06810713          	add	a4,sp,104
    4008:	06c10693          	add	a3,sp,108
    400c:	000d0613          	mv	a2,s10
    4010:	000d8593          	mv	a1,s11
    4014:	00040513          	mv	a0,s0
    4018:	9d0ff0ef          	jal	31e8 <__d2b>
    401c:	014ad913          	srl	s2,s5,0x14
    4020:	00050493          	mv	s1,a0
    4024:	60091263          	bnez	s2,4628 <_dtoa_r+0x760>
    4028:	06812a03          	lw	s4,104(sp)
    402c:	06c12903          	lw	s2,108(sp)
    4030:	02000793          	li	a5,32
    4034:	012a0933          	add	s2,s4,s2
    4038:	43290713          	add	a4,s2,1074
    403c:	36e7dee3          	bge	a5,a4,4bb8 <_dtoa_r+0xcf0>
    4040:	04000793          	li	a5,64
    4044:	40e787b3          	sub	a5,a5,a4
    4048:	41290513          	add	a0,s2,1042
    404c:	00fa97b3          	sll	a5,s5,a5
    4050:	00add533          	srl	a0,s11,a0
    4054:	00a7e533          	or	a0,a5,a0
    4058:	025070ef          	jal	b87c <__floatunsidf>
    405c:	fe1007b7          	lui	a5,0xfe100
    4060:	00100693          	li	a3,1
    4064:	00050713          	mv	a4,a0
    4068:	00b787b3          	add	a5,a5,a1
    406c:	fff90913          	add	s2,s2,-1
    4070:	02d12a23          	sw	a3,52(sp)
    4074:	0001d697          	auipc	a3,0x1d
    4078:	5f468693          	add	a3,a3,1524 # 21668 <__malloc_trim_threshold+0x8>
    407c:	0006a603          	lw	a2,0(a3)
    4080:	0046a683          	lw	a3,4(a3)
    4084:	00070513          	mv	a0,a4
    4088:	00078593          	mv	a1,a5
    408c:	18d060ef          	jal	aa18 <__subdf3>
    4090:	0001d797          	auipc	a5,0x1d
    4094:	5e078793          	add	a5,a5,1504 # 21670 <__malloc_trim_threshold+0x10>
    4098:	0007a603          	lw	a2,0(a5)
    409c:	0047a683          	lw	a3,4(a5)
    40a0:	1b8060ef          	jal	a258 <__muldf3>
    40a4:	0001d797          	auipc	a5,0x1d
    40a8:	5d478793          	add	a5,a5,1492 # 21678 <__malloc_trim_threshold+0x18>
    40ac:	0007a603          	lw	a2,0(a5)
    40b0:	0047a683          	lw	a3,4(a5)
    40b4:	295040ef          	jal	8b48 <__adddf3>
    40b8:	00050b13          	mv	s6,a0
    40bc:	00090513          	mv	a0,s2
    40c0:	00058a93          	mv	s5,a1
    40c4:	710070ef          	jal	b7d4 <__floatsidf>
    40c8:	0001d797          	auipc	a5,0x1d
    40cc:	5b878793          	add	a5,a5,1464 # 21680 <__malloc_trim_threshold+0x20>
    40d0:	0007a603          	lw	a2,0(a5)
    40d4:	0047a683          	lw	a3,4(a5)
    40d8:	180060ef          	jal	a258 <__muldf3>
    40dc:	00050613          	mv	a2,a0
    40e0:	00058693          	mv	a3,a1
    40e4:	000b0513          	mv	a0,s6
    40e8:	000a8593          	mv	a1,s5
    40ec:	25d040ef          	jal	8b48 <__adddf3>
    40f0:	00050b13          	mv	s6,a0
    40f4:	00058a93          	mv	s5,a1
    40f8:	5dc070ef          	jal	b6d4 <__fixdfsi>
    40fc:	00050c13          	mv	s8,a0
    4100:	000a8593          	mv	a1,s5
    4104:	000b0513          	mv	a0,s6
    4108:	00000613          	li	a2,0
    410c:	00000693          	li	a3,0
    4110:	d30fd0ef          	jal	1640 <__ledf2>
    4114:	02055063          	bgez	a0,4134 <_dtoa_r+0x26c>
    4118:	000c0513          	mv	a0,s8
    411c:	6b8070ef          	jal	b7d4 <__floatsidf>
    4120:	000b0613          	mv	a2,s6
    4124:	000a8693          	mv	a3,s5
    4128:	75d050ef          	jal	a084 <__eqdf2>
    412c:	00a03533          	snez	a0,a0
    4130:	40ac0c33          	sub	s8,s8,a0
    4134:	412a0a33          	sub	s4,s4,s2
    4138:	01600793          	li	a5,22
    413c:	fffa0b13          	add	s6,s4,-1
    4140:	2387e6e3          	bltu	a5,s8,4b6c <_dtoa_r+0xca4>
    4144:	0001c917          	auipc	s2,0x1c
    4148:	6f490913          	add	s2,s2,1780 # 20838 <__mprec_tens>
    414c:	003c1793          	sll	a5,s8,0x3
    4150:	00f907b3          	add	a5,s2,a5
    4154:	0007a603          	lw	a2,0(a5)
    4158:	0047a683          	lw	a3,4(a5)
    415c:	01412503          	lw	a0,20(sp)
    4160:	01812583          	lw	a1,24(sp)
    4164:	cdcfd0ef          	jal	1640 <__ledf2>
    4168:	280556e3          	bgez	a0,4bf4 <_dtoa_r+0xd2c>
    416c:	fffc0c13          	add	s8,s8,-1
    4170:	02012823          	sw	zero,48(sp)
    4174:	00012423          	sw	zero,8(sp)
    4178:	4c0b4c63          	bltz	s6,4650 <_dtoa_r+0x788>
    417c:	4e0c5463          	bgez	s8,4664 <_dtoa_r+0x79c>
    4180:	00812783          	lw	a5,8(sp)
    4184:	01812e23          	sw	s8,28(sp)
    4188:	418787b3          	sub	a5,a5,s8
    418c:	00f12423          	sw	a5,8(sp)
    4190:	418007b3          	neg	a5,s8
    4194:	02f12623          	sw	a5,44(sp)
    4198:	00900793          	li	a5,9
    419c:	00000c13          	li	s8,0
    41a0:	4d37ec63          	bltu	a5,s3,4678 <_dtoa_r+0x7b0>
    41a4:	00500793          	li	a5,5
    41a8:	2137dee3          	bge	a5,s3,4bc4 <_dtoa_r+0xcfc>
    41ac:	ffc98993          	add	s3,s3,-4
    41b0:	00300793          	li	a5,3
    41b4:	00000913          	li	s2,0
    41b8:	64f988e3          	beq	s3,a5,5008 <_dtoa_r+0x1140>
    41bc:	6137d8e3          	bge	a5,s3,4fcc <_dtoa_r+0x1104>
    41c0:	00400793          	li	a5,4
    41c4:	50f986e3          	beq	s3,a5,4ed0 <_dtoa_r+0x1008>
    41c8:	00100793          	li	a5,1
    41cc:	00500993          	li	s3,5
    41d0:	02f12023          	sw	a5,32(sp)
    41d4:	01012783          	lw	a5,16(sp)
    41d8:	01c12703          	lw	a4,28(sp)
    41dc:	00e787b3          	add	a5,a5,a4
    41e0:	00178a13          	add	s4,a5,1
    41e4:	04f12023          	sw	a5,64(sp)
    41e8:	000a0613          	mv	a2,s4
    41ec:	01404463          	bgtz	s4,41f4 <_dtoa_r+0x32c>
    41f0:	00100613          	li	a2,1
    41f4:	01700693          	li	a3,23
    41f8:	00100713          	li	a4,1
    41fc:	00400793          	li	a5,4
    4200:	00c6c463          	blt	a3,a2,4208 <_dtoa_r+0x340>
    4204:	3380106f          	j	553c <_dtoa_r+0x1674>
    4208:	00179793          	sll	a5,a5,0x1
    420c:	01478693          	add	a3,a5,20
    4210:	00070593          	mv	a1,a4
    4214:	00170713          	add	a4,a4,1
    4218:	fed678e3          	bgeu	a2,a3,4208 <_dtoa_r+0x340>
    421c:	04b42223          	sw	a1,68(s0)
    4220:	00040513          	mv	a0,s0
    4224:	be8fe0ef          	jal	260c <_Balloc>
    4228:	00050a93          	mv	s5,a0
    422c:	00051463          	bnez	a0,4234 <_dtoa_r+0x36c>
    4230:	2f00106f          	j	5520 <_dtoa_r+0x1658>
    4234:	04a42023          	sw	a0,64(s0)
    4238:	00e00793          	li	a5,14
    423c:	5347e263          	bltu	a5,s4,4760 <_dtoa_r+0x898>
    4240:	52090063          	beqz	s2,4760 <_dtoa_r+0x898>
    4244:	01c12703          	lw	a4,28(sp)
    4248:	60e050e3          	blez	a4,5048 <_dtoa_r+0x1180>
    424c:	00f77793          	and	a5,a4,15
    4250:	40475c93          	sra	s9,a4,0x4
    4254:	0001c917          	auipc	s2,0x1c
    4258:	5e490913          	add	s2,s2,1508 # 20838 <__mprec_tens>
    425c:	00379793          	sll	a5,a5,0x3
    4260:	00f907b3          	add	a5,s2,a5
    4264:	010cf693          	and	a3,s9,16
    4268:	0007a803          	lw	a6,0(a5)
    426c:	0047a703          	lw	a4,4(a5)
    4270:	540686e3          	beqz	a3,4fbc <_dtoa_r+0x10f4>
    4274:	0001c797          	auipc	a5,0x1c
    4278:	59c78793          	add	a5,a5,1436 # 20810 <__mprec_bigtens>
    427c:	0207a603          	lw	a2,32(a5)
    4280:	0247a683          	lw	a3,36(a5)
    4284:	01412503          	lw	a0,20(sp)
    4288:	01812583          	lw	a1,24(sp)
    428c:	04e12223          	sw	a4,68(sp)
    4290:	03012c23          	sw	a6,56(sp)
    4294:	558050ef          	jal	97ec <__divdf3>
    4298:	03812803          	lw	a6,56(sp)
    429c:	04412703          	lw	a4,68(sp)
    42a0:	00fcfc93          	and	s9,s9,15
    42a4:	00050313          	mv	t1,a0
    42a8:	00058893          	mv	a7,a1
    42ac:	00300913          	li	s2,3
    42b0:	060c8663          	beqz	s9,431c <_dtoa_r+0x454>
    42b4:	0001cb97          	auipc	s7,0x1c
    42b8:	55cb8b93          	add	s7,s7,1372 # 20810 <__mprec_bigtens>
    42bc:	02912c23          	sw	s1,56(sp)
    42c0:	04812223          	sw	s0,68(sp)
    42c4:	00090493          	mv	s1,s2
    42c8:	000b8413          	mv	s0,s7
    42cc:	00088913          	mv	s2,a7
    42d0:	00030b93          	mv	s7,t1
    42d4:	00070593          	mv	a1,a4
    42d8:	001cf693          	and	a3,s9,1
    42dc:	00068e63          	beqz	a3,42f8 <_dtoa_r+0x430>
    42e0:	00042603          	lw	a2,0(s0)
    42e4:	00442683          	lw	a3,4(s0)
    42e8:	00080513          	mv	a0,a6
    42ec:	00148493          	add	s1,s1,1
    42f0:	769050ef          	jal	a258 <__muldf3>
    42f4:	00050813          	mv	a6,a0
    42f8:	401cdc93          	sra	s9,s9,0x1
    42fc:	00840413          	add	s0,s0,8
    4300:	fc0c9ce3          	bnez	s9,42d8 <_dtoa_r+0x410>
    4304:	00090893          	mv	a7,s2
    4308:	04412403          	lw	s0,68(sp)
    430c:	00048913          	mv	s2,s1
    4310:	03812483          	lw	s1,56(sp)
    4314:	000b8313          	mv	t1,s7
    4318:	00058713          	mv	a4,a1
    431c:	00080613          	mv	a2,a6
    4320:	00030513          	mv	a0,t1
    4324:	00070693          	mv	a3,a4
    4328:	00088593          	mv	a1,a7
    432c:	4c0050ef          	jal	97ec <__divdf3>
    4330:	00050793          	mv	a5,a0
    4334:	00058b93          	mv	s7,a1
    4338:	03012703          	lw	a4,48(sp)
    433c:	02070863          	beqz	a4,436c <_dtoa_r+0x4a4>
    4340:	0001d697          	auipc	a3,0x1d
    4344:	34868693          	add	a3,a3,840 # 21688 <__malloc_trim_threshold+0x28>
    4348:	0006a603          	lw	a2,0(a3)
    434c:	0046a683          	lw	a3,4(a3)
    4350:	00078513          	mv	a0,a5
    4354:	000b8593          	mv	a1,s7
    4358:	02f12c23          	sw	a5,56(sp)
    435c:	ae4fd0ef          	jal	1640 <__ledf2>
    4360:	03812783          	lw	a5,56(sp)
    4364:	00055463          	bgez	a0,436c <_dtoa_r+0x4a4>
    4368:	0300106f          	j	5398 <_dtoa_r+0x14d0>
    436c:	00090513          	mv	a0,s2
    4370:	02f12c23          	sw	a5,56(sp)
    4374:	460070ef          	jal	b7d4 <__floatsidf>
    4378:	03812783          	lw	a5,56(sp)
    437c:	000b8693          	mv	a3,s7
    4380:	00078613          	mv	a2,a5
    4384:	04f12223          	sw	a5,68(sp)
    4388:	6d1050ef          	jal	a258 <__muldf3>
    438c:	0001d717          	auipc	a4,0x1d
    4390:	30c70713          	add	a4,a4,780 # 21698 <__malloc_trim_threshold+0x38>
    4394:	00072603          	lw	a2,0(a4)
    4398:	00472683          	lw	a3,4(a4)
    439c:	7ac040ef          	jal	8b48 <__adddf3>
    43a0:	fcc00737          	lui	a4,0xfcc00
    43a4:	00b707b3          	add	a5,a4,a1
    43a8:	02f12c23          	sw	a5,56(sp)
    43ac:	00050c93          	mv	s9,a0
    43b0:	04412783          	lw	a5,68(sp)
    43b4:	340a0863          	beqz	s4,4704 <_dtoa_r+0x83c>
    43b8:	01c12703          	lw	a4,28(sp)
    43bc:	05412223          	sw	s4,68(sp)
    43c0:	04e12c23          	sw	a4,88(sp)
    43c4:	04412703          	lw	a4,68(sp)
    43c8:	0001c917          	auipc	s2,0x1c
    43cc:	47090913          	add	s2,s2,1136 # 20838 <__mprec_tens>
    43d0:	00078513          	mv	a0,a5
    43d4:	fff70713          	add	a4,a4,-1 # fcbfffff <__freertos_irq_stack_top+0xfcbcffff>
    43d8:	00371713          	sll	a4,a4,0x3
    43dc:	00e90733          	add	a4,s2,a4
    43e0:	00472803          	lw	a6,4(a4)
    43e4:	04f12623          	sw	a5,76(sp)
    43e8:	00072783          	lw	a5,0(a4)
    43ec:	000b8593          	mv	a1,s7
    43f0:	05012a23          	sw	a6,84(sp)
    43f4:	04f12823          	sw	a5,80(sp)
    43f8:	2dc070ef          	jal	b6d4 <__fixdfsi>
    43fc:	04a12423          	sw	a0,72(sp)
    4400:	3d4070ef          	jal	b7d4 <__floatsidf>
    4404:	04c12783          	lw	a5,76(sp)
    4408:	00058693          	mv	a3,a1
    440c:	00050613          	mv	a2,a0
    4410:	000b8593          	mv	a1,s7
    4414:	00078513          	mv	a0,a5
    4418:	600060ef          	jal	aa18 <__subdf3>
    441c:	04812703          	lw	a4,72(sp)
    4420:	000c8793          	mv	a5,s9
    4424:	03812b83          	lw	s7,56(sp)
    4428:	03070693          	add	a3,a4,48
    442c:	0ff6f813          	zext.b	a6,a3
    4430:	02012683          	lw	a3,32(sp)
    4434:	00050c93          	mv	s9,a0
    4438:	001a8713          	add	a4,s5,1
    443c:	5c0686e3          	beqz	a3,5208 <_dtoa_r+0x1340>
    4440:	0001d697          	auipc	a3,0x1d
    4444:	26868693          	add	a3,a3,616 # 216a8 <__malloc_trim_threshold+0x48>
    4448:	0006a503          	lw	a0,0(a3)
    444c:	05012603          	lw	a2,80(sp)
    4450:	02b12c23          	sw	a1,56(sp)
    4454:	0046a583          	lw	a1,4(a3)
    4458:	05412683          	lw	a3,84(sp)
    445c:	04e12423          	sw	a4,72(sp)
    4460:	05012623          	sw	a6,76(sp)
    4464:	04f12e23          	sw	a5,92(sp)
    4468:	384050ef          	jal	97ec <__divdf3>
    446c:	05c12783          	lw	a5,92(sp)
    4470:	000b8693          	mv	a3,s7
    4474:	00078613          	mv	a2,a5
    4478:	5a0060ef          	jal	aa18 <__subdf3>
    447c:	03812883          	lw	a7,56(sp)
    4480:	04c12803          	lw	a6,76(sp)
    4484:	000c8613          	mv	a2,s9
    4488:	00088693          	mv	a3,a7
    448c:	010a8023          	sb	a6,0(s5)
    4490:	00050913          	mv	s2,a0
    4494:	00058b93          	mv	s7,a1
    4498:	4b1050ef          	jal	a148 <__gedf2>
    449c:	03812883          	lw	a7,56(sp)
    44a0:	04812703          	lw	a4,72(sp)
    44a4:	00a05463          	blez	a0,44ac <_dtoa_r+0x5e4>
    44a8:	7a90006f          	j	5450 <_dtoa_r+0x1588>
    44ac:	0001d697          	auipc	a3,0x1d
    44b0:	1dc68693          	add	a3,a3,476 # 21688 <__malloc_trim_threshold+0x28>
    44b4:	0006a783          	lw	a5,0(a3)
    44b8:	0046a803          	lw	a6,4(a3)
    44bc:	05812423          	sw	s8,72(sp)
    44c0:	02f12c23          	sw	a5,56(sp)
    44c4:	00000793          	li	a5,0
    44c8:	04412c03          	lw	s8,68(sp)
    44cc:	05612623          	sw	s6,76(sp)
    44d0:	05412823          	sw	s4,80(sp)
    44d4:	05312223          	sw	s3,68(sp)
    44d8:	03012e23          	sw	a6,60(sp)
    44dc:	00070b13          	mv	s6,a4
    44e0:	00078a13          	mv	s4,a5
    44e4:	05a12e23          	sw	s10,92(sp)
    44e8:	00088993          	mv	s3,a7
    44ec:	0980006f          	j	4584 <_dtoa_r+0x6bc>
    44f0:	001a0a13          	add	s4,s4,1
    44f4:	018a4463          	blt	s4,s8,44fc <_dtoa_r+0x634>
    44f8:	79d0006f          	j	5494 <_dtoa_r+0x15cc>
    44fc:	0001dd17          	auipc	s10,0x1d
    4500:	194d0d13          	add	s10,s10,404 # 21690 <__malloc_trim_threshold+0x30>
    4504:	000d2603          	lw	a2,0(s10)
    4508:	004d2683          	lw	a3,4(s10)
    450c:	00090513          	mv	a0,s2
    4510:	000b8593          	mv	a1,s7
    4514:	545050ef          	jal	a258 <__muldf3>
    4518:	000d2603          	lw	a2,0(s10)
    451c:	004d2683          	lw	a3,4(s10)
    4520:	00050913          	mv	s2,a0
    4524:	00058b93          	mv	s7,a1
    4528:	000c8513          	mv	a0,s9
    452c:	00098593          	mv	a1,s3
    4530:	529050ef          	jal	a258 <__muldf3>
    4534:	00058c93          	mv	s9,a1
    4538:	00050d13          	mv	s10,a0
    453c:	198070ef          	jal	b6d4 <__fixdfsi>
    4540:	00050993          	mv	s3,a0
    4544:	290070ef          	jal	b7d4 <__floatsidf>
    4548:	00050613          	mv	a2,a0
    454c:	00058693          	mv	a3,a1
    4550:	000d0513          	mv	a0,s10
    4554:	000c8593          	mv	a1,s9
    4558:	4c0060ef          	jal	aa18 <__subdf3>
    455c:	03098793          	add	a5,s3,48
    4560:	00090613          	mv	a2,s2
    4564:	000b8693          	mv	a3,s7
    4568:	00fb0023          	sb	a5,0(s6)
    456c:	001b0b13          	add	s6,s6,1
    4570:	00050c93          	mv	s9,a0
    4574:	00058993          	mv	s3,a1
    4578:	8c8fd0ef          	jal	1640 <__ledf2>
    457c:	00055463          	bgez	a0,4584 <_dtoa_r+0x6bc>
    4580:	6cd0006f          	j	544c <_dtoa_r+0x1584>
    4584:	03812503          	lw	a0,56(sp)
    4588:	03c12583          	lw	a1,60(sp)
    458c:	000c8613          	mv	a2,s9
    4590:	00098693          	mv	a3,s3
    4594:	484060ef          	jal	aa18 <__subdf3>
    4598:	00090613          	mv	a2,s2
    459c:	000b8693          	mv	a3,s7
    45a0:	8a0fd0ef          	jal	1640 <__ledf2>
    45a4:	f40556e3          	bgez	a0,44f0 <_dtoa_r+0x628>
    45a8:	05812783          	lw	a5,88(sp)
    45ac:	000b0b93          	mv	s7,s6
    45b0:	00178c93          	add	s9,a5,1
    45b4:	03900613          	li	a2,57
    45b8:	0080006f          	j	45c0 <_dtoa_r+0x6f8>
    45bc:	677a8ce3          	beq	s5,s7,5434 <_dtoa_r+0x156c>
    45c0:	fffbc683          	lbu	a3,-1(s7)
    45c4:	000b8713          	mv	a4,s7
    45c8:	fffb8b93          	add	s7,s7,-1
    45cc:	fec688e3          	beq	a3,a2,45bc <_dtoa_r+0x6f4>
    45d0:	00168693          	add	a3,a3,1
    45d4:	0ff6f693          	zext.b	a3,a3
    45d8:	00db8023          	sb	a3,0(s7)
    45dc:	000c8c13          	mv	s8,s9
    45e0:	4f80006f          	j	4ad8 <_dtoa_r+0xc10>
    45e4:	00412683          	lw	a3,4(sp)
    45e8:	00ca9793          	sll	a5,s5,0xc
    45ec:	00002737          	lui	a4,0x2
    45f0:	00c7d793          	srl	a5,a5,0xc
    45f4:	70f70713          	add	a4,a4,1807 # 270f <__multadd+0x37>
    45f8:	00e6a023          	sw	a4,0(a3)
    45fc:	01b7e7b3          	or	a5,a5,s11
    4600:	0a078063          	beqz	a5,46a0 <_dtoa_r+0x7d8>
    4604:	00012783          	lw	a5,0(sp)
    4608:	0001ca97          	auipc	s5,0x1c
    460c:	344a8a93          	add	s5,s5,836 # 2094c <__mprec_tens+0x114>
    4610:	9a078ae3          	beqz	a5,3fc4 <_dtoa_r+0xfc>
    4614:	0001c797          	auipc	a5,0x1c
    4618:	33b78793          	add	a5,a5,827 # 2094f <__mprec_tens+0x117>
    461c:	00012703          	lw	a4,0(sp)
    4620:	00f72023          	sw	a5,0(a4)
    4624:	9a1ff06f          	j	3fc4 <_dtoa_r+0xfc>
    4628:	01812783          	lw	a5,24(sp)
    462c:	3ff006b7          	lui	a3,0x3ff00
    4630:	06812a03          	lw	s4,104(sp)
    4634:	00c79793          	sll	a5,a5,0xc
    4638:	00c7d793          	srl	a5,a5,0xc
    463c:	01412703          	lw	a4,20(sp)
    4640:	00d7e7b3          	or	a5,a5,a3
    4644:	c0190913          	add	s2,s2,-1023
    4648:	02012a23          	sw	zero,52(sp)
    464c:	a29ff06f          	j	4074 <_dtoa_r+0x1ac>
    4650:	00100793          	li	a5,1
    4654:	414787b3          	sub	a5,a5,s4
    4658:	00f12423          	sw	a5,8(sp)
    465c:	00000b13          	li	s6,0
    4660:	b20c40e3          	bltz	s8,4180 <_dtoa_r+0x2b8>
    4664:	01812e23          	sw	s8,28(sp)
    4668:	02012623          	sw	zero,44(sp)
    466c:	00900793          	li	a5,9
    4670:	018b0b33          	add	s6,s6,s8
    4674:	b337f8e3          	bgeu	a5,s3,41a4 <_dtoa_r+0x2dc>
    4678:	00100793          	li	a5,1
    467c:	00100913          	li	s2,1
    4680:	00000993          	li	s3,0
    4684:	02f12023          	sw	a5,32(sp)
    4688:	fff00a13          	li	s4,-1
    468c:	00012823          	sw	zero,16(sp)
    4690:	04042223          	sw	zero,68(s0)
    4694:	05412023          	sw	s4,64(sp)
    4698:	00000593          	li	a1,0
    469c:	b85ff06f          	j	4220 <_dtoa_r+0x358>
    46a0:	00012703          	lw	a4,0(sp)
    46a4:	0001ca97          	auipc	s5,0x1c
    46a8:	29ca8a93          	add	s5,s5,668 # 20940 <__mprec_tens+0x108>
    46ac:	0001c797          	auipc	a5,0x1c
    46b0:	29c78793          	add	a5,a5,668 # 20948 <__mprec_tens+0x110>
    46b4:	f60714e3          	bnez	a4,461c <_dtoa_r+0x754>
    46b8:	90dff06f          	j	3fc4 <_dtoa_r+0xfc>
    46bc:	00090513          	mv	a0,s2
    46c0:	02f12c23          	sw	a5,56(sp)
    46c4:	110070ef          	jal	b7d4 <__floatsidf>
    46c8:	03812783          	lw	a5,56(sp)
    46cc:	000b8693          	mv	a3,s7
    46d0:	00078613          	mv	a2,a5
    46d4:	04f12223          	sw	a5,68(sp)
    46d8:	381050ef          	jal	a258 <__muldf3>
    46dc:	0001d717          	auipc	a4,0x1d
    46e0:	fbc70713          	add	a4,a4,-68 # 21698 <__malloc_trim_threshold+0x38>
    46e4:	00072603          	lw	a2,0(a4)
    46e8:	00472683          	lw	a3,4(a4)
    46ec:	45c040ef          	jal	8b48 <__adddf3>
    46f0:	fcc00737          	lui	a4,0xfcc00
    46f4:	00b707b3          	add	a5,a4,a1
    46f8:	02f12c23          	sw	a5,56(sp)
    46fc:	04412783          	lw	a5,68(sp)
    4700:	00050c93          	mv	s9,a0
    4704:	0001d717          	auipc	a4,0x1d
    4708:	f9c70713          	add	a4,a4,-100 # 216a0 <__malloc_trim_threshold+0x40>
    470c:	00072603          	lw	a2,0(a4)
    4710:	00472683          	lw	a3,4(a4)
    4714:	00078513          	mv	a0,a5
    4718:	000b8593          	mv	a1,s7
    471c:	2fc060ef          	jal	aa18 <__subdf3>
    4720:	03812783          	lw	a5,56(sp)
    4724:	000c8613          	mv	a2,s9
    4728:	00050b93          	mv	s7,a0
    472c:	00078693          	mv	a3,a5
    4730:	00058913          	mv	s2,a1
    4734:	215050ef          	jal	a148 <__gedf2>
    4738:	50a044e3          	bgtz	a0,5440 <_dtoa_r+0x1578>
    473c:	03812703          	lw	a4,56(sp)
    4740:	800007b7          	lui	a5,0x80000
    4744:	000b8513          	mv	a0,s7
    4748:	00e7c7b3          	xor	a5,a5,a4
    474c:	000c8613          	mv	a2,s9
    4750:	00078693          	mv	a3,a5
    4754:	00090593          	mv	a1,s2
    4758:	ee9fc0ef          	jal	1640 <__ledf2>
    475c:	06054c63          	bltz	a0,47d4 <_dtoa_r+0x90c>
    4760:	06c12783          	lw	a5,108(sp)
    4764:	1a07c263          	bltz	a5,4908 <_dtoa_r+0xa40>
    4768:	01c12683          	lw	a3,28(sp)
    476c:	00e00713          	li	a4,14
    4770:	0001c917          	auipc	s2,0x1c
    4774:	0c890913          	add	s2,s2,200 # 20838 <__mprec_tens>
    4778:	18d74863          	blt	a4,a3,4908 <_dtoa_r+0xa40>
    477c:	01c12783          	lw	a5,28(sp)
    4780:	00379793          	sll	a5,a5,0x3
    4784:	00f907b3          	add	a5,s2,a5
    4788:	0007a903          	lw	s2,0(a5) # 80000000 <__freertos_irq_stack_top+0x7ffd0000>
    478c:	0047a983          	lw	s3,4(a5)
    4790:	01012783          	lw	a5,16(sp)
    4794:	0407dc63          	bgez	a5,47ec <_dtoa_r+0x924>
    4798:	05404a63          	bgtz	s4,47ec <_dtoa_r+0x924>
    479c:	020a1c63          	bnez	s4,47d4 <_dtoa_r+0x90c>
    47a0:	0001d797          	auipc	a5,0x1d
    47a4:	f0078793          	add	a5,a5,-256 # 216a0 <__malloc_trim_threshold+0x40>
    47a8:	0007a603          	lw	a2,0(a5)
    47ac:	0047a683          	lw	a3,4(a5)
    47b0:	00090513          	mv	a0,s2
    47b4:	00098593          	mv	a1,s3
    47b8:	2a1050ef          	jal	a258 <__muldf3>
    47bc:	00050613          	mv	a2,a0
    47c0:	00058693          	mv	a3,a1
    47c4:	01412503          	lw	a0,20(sp)
    47c8:	01812583          	lw	a1,24(sp)
    47cc:	e75fc0ef          	jal	1640 <__ledf2>
    47d0:	46a048e3          	bgtz	a0,5440 <_dtoa_r+0x1578>
    47d4:	000a8713          	mv	a4,s5
    47d8:	00000b93          	li	s7,0
    47dc:	00000913          	li	s2,0
    47e0:	01012783          	lw	a5,16(sp)
    47e4:	fff7cc13          	not	s8,a5
    47e8:	6840006f          	j	4e6c <_dtoa_r+0xfa4>
    47ec:	01412b83          	lw	s7,20(sp)
    47f0:	01812b03          	lw	s6,24(sp)
    47f4:	00090613          	mv	a2,s2
    47f8:	00098693          	mv	a3,s3
    47fc:	000b8513          	mv	a0,s7
    4800:	000b0593          	mv	a1,s6
    4804:	7e9040ef          	jal	97ec <__divdf3>
    4808:	6cd060ef          	jal	b6d4 <__fixdfsi>
    480c:	00050d13          	mv	s10,a0
    4810:	7c5060ef          	jal	b7d4 <__floatsidf>
    4814:	00090613          	mv	a2,s2
    4818:	00098693          	mv	a3,s3
    481c:	23d050ef          	jal	a258 <__muldf3>
    4820:	00050613          	mv	a2,a0
    4824:	00058693          	mv	a3,a1
    4828:	000b8513          	mv	a0,s7
    482c:	000b0593          	mv	a1,s6
    4830:	1e8060ef          	jal	aa18 <__subdf3>
    4834:	030d0793          	add	a5,s10,48
    4838:	00fa8023          	sb	a5,0(s5)
    483c:	00100613          	li	a2,1
    4840:	00050713          	mv	a4,a0
    4844:	00058693          	mv	a3,a1
    4848:	001a8b93          	add	s7,s5,1
    484c:	0cca06e3          	beq	s4,a2,5118 <_dtoa_r+0x1250>
    4850:	0001d617          	auipc	a2,0x1d
    4854:	e4060613          	add	a2,a2,-448 # 21690 <__malloc_trim_threshold+0x30>
    4858:	00062783          	lw	a5,0(a2)
    485c:	00462803          	lw	a6,4(a2)
    4860:	00100d93          	li	s11,1
    4864:	00f12423          	sw	a5,8(sp)
    4868:	01012623          	sw	a6,12(sp)
    486c:	0600006f          	j	48cc <_dtoa_r+0xa04>
    4870:	00090613          	mv	a2,s2
    4874:	00098693          	mv	a3,s3
    4878:	000c0513          	mv	a0,s8
    487c:	000b0593          	mv	a1,s6
    4880:	76d040ef          	jal	97ec <__divdf3>
    4884:	651060ef          	jal	b6d4 <__fixdfsi>
    4888:	00050d13          	mv	s10,a0
    488c:	749060ef          	jal	b7d4 <__floatsidf>
    4890:	00090613          	mv	a2,s2
    4894:	00098693          	mv	a3,s3
    4898:	1c1050ef          	jal	a258 <__muldf3>
    489c:	00058693          	mv	a3,a1
    48a0:	00050613          	mv	a2,a0
    48a4:	000b0593          	mv	a1,s6
    48a8:	000c0513          	mv	a0,s8
    48ac:	16c060ef          	jal	aa18 <__subdf3>
    48b0:	001b8b93          	add	s7,s7,1
    48b4:	030d0793          	add	a5,s10,48
    48b8:	001d8d93          	add	s11,s11,1
    48bc:	fefb8fa3          	sb	a5,-1(s7)
    48c0:	00050713          	mv	a4,a0
    48c4:	00058693          	mv	a3,a1
    48c8:	05ba08e3          	beq	s4,s11,5118 <_dtoa_r+0x1250>
    48cc:	00812603          	lw	a2,8(sp)
    48d0:	00068593          	mv	a1,a3
    48d4:	00c12683          	lw	a3,12(sp)
    48d8:	00070513          	mv	a0,a4
    48dc:	17d050ef          	jal	a258 <__muldf3>
    48e0:	00000613          	li	a2,0
    48e4:	00000693          	li	a3,0
    48e8:	00050c13          	mv	s8,a0
    48ec:	00058b13          	mv	s6,a1
    48f0:	794050ef          	jal	a084 <__eqdf2>
    48f4:	f6051ee3          	bnez	a0,4870 <_dtoa_r+0x9a8>
    48f8:	01c12783          	lw	a5,28(sp)
    48fc:	000b8713          	mv	a4,s7
    4900:	00178c13          	add	s8,a5,1
    4904:	1d40006f          	j	4ad8 <_dtoa_r+0xc10>
    4908:	02012703          	lw	a4,32(sp)
    490c:	26071a63          	bnez	a4,4b80 <_dtoa_r+0xcb8>
    4910:	02c12b83          	lw	s7,44(sp)
    4914:	00812c83          	lw	s9,8(sp)
    4918:	02012023          	sw	zero,32(sp)
    491c:	00000913          	li	s2,0
    4920:	020c8263          	beqz	s9,4944 <_dtoa_r+0xa7c>
    4924:	03605063          	blez	s6,4944 <_dtoa_r+0xa7c>
    4928:	000c8793          	mv	a5,s9
    492c:	639b4c63          	blt	s6,s9,4f64 <_dtoa_r+0x109c>
    4930:	00812703          	lw	a4,8(sp)
    4934:	40fc8cb3          	sub	s9,s9,a5
    4938:	40fb0b33          	sub	s6,s6,a5
    493c:	40f70733          	sub	a4,a4,a5
    4940:	00e12423          	sw	a4,8(sp)
    4944:	02c12783          	lw	a5,44(sp)
    4948:	02078263          	beqz	a5,496c <_dtoa_r+0xaa4>
    494c:	02012783          	lw	a5,32(sp)
    4950:	00078463          	beqz	a5,4958 <_dtoa_r+0xa90>
    4954:	060b92e3          	bnez	s7,51b8 <_dtoa_r+0x12f0>
    4958:	02c12603          	lw	a2,44(sp)
    495c:	00048593          	mv	a1,s1
    4960:	00040513          	mv	a0,s0
    4964:	afcfe0ef          	jal	2c60 <__pow5mult>
    4968:	00050493          	mv	s1,a0
    496c:	00100593          	li	a1,1
    4970:	00040513          	mv	a0,s0
    4974:	808fe0ef          	jal	297c <__i2b>
    4978:	00050b93          	mv	s7,a0
    497c:	500c1863          	bnez	s8,4e8c <_dtoa_r+0xfc4>
    4980:	00100793          	li	a5,1
    4984:	5737d463          	bge	a5,s3,4eec <_dtoa_r+0x1024>
    4988:	016787b3          	add	a5,a5,s6
    498c:	01f7f793          	and	a5,a5,31
    4990:	1e078463          	beqz	a5,4b78 <_dtoa_r+0xcb0>
    4994:	02000713          	li	a4,32
    4998:	40f70733          	sub	a4,a4,a5
    499c:	00400693          	li	a3,4
    49a0:	58e6d863          	bge	a3,a4,4f30 <_dtoa_r+0x1068>
    49a4:	01c00713          	li	a4,28
    49a8:	40f707b3          	sub	a5,a4,a5
    49ac:	00812703          	lw	a4,8(sp)
    49b0:	00fc8cb3          	add	s9,s9,a5
    49b4:	00fb0b33          	add	s6,s6,a5
    49b8:	00f70733          	add	a4,a4,a5
    49bc:	00e12423          	sw	a4,8(sp)
    49c0:	00812783          	lw	a5,8(sp)
    49c4:	14f04263          	bgtz	a5,4b08 <_dtoa_r+0xc40>
    49c8:	01605c63          	blez	s6,49e0 <_dtoa_r+0xb18>
    49cc:	000b8593          	mv	a1,s7
    49d0:	000b0613          	mv	a2,s6
    49d4:	00040513          	mv	a0,s0
    49d8:	bd8fe0ef          	jal	2db0 <__lshift>
    49dc:	00050b93          	mv	s7,a0
    49e0:	03012783          	lw	a5,48(sp)
    49e4:	12079e63          	bnez	a5,4b20 <_dtoa_r+0xc58>
    49e8:	43405863          	blez	s4,4e18 <_dtoa_r+0xf50>
    49ec:	02012783          	lw	a5,32(sp)
    49f0:	24079663          	bnez	a5,4c3c <_dtoa_r+0xd74>
    49f4:	01c12783          	lw	a5,28(sp)
    49f8:	00178c13          	add	s8,a5,1
    49fc:	00100993          	li	s3,1
    4a00:	0200006f          	j	4a20 <_dtoa_r+0xb58>
    4a04:	00048593          	mv	a1,s1
    4a08:	00000693          	li	a3,0
    4a0c:	00a00613          	li	a2,10
    4a10:	00040513          	mv	a0,s0
    4a14:	cc5fd0ef          	jal	26d8 <__multadd>
    4a18:	00050493          	mv	s1,a0
    4a1c:	00198993          	add	s3,s3,1
    4a20:	000b8593          	mv	a1,s7
    4a24:	00048513          	mv	a0,s1
    4a28:	ac4ff0ef          	jal	3cec <quorem>
    4a2c:	03050d13          	add	s10,a0,48
    4a30:	013a87b3          	add	a5,s5,s3
    4a34:	ffa78fa3          	sb	s10,-1(a5)
    4a38:	fd49c6e3          	blt	s3,s4,4a04 <_dtoa_r+0xb3c>
    4a3c:	00100713          	li	a4,1
    4a40:	01405463          	blez	s4,4a48 <_dtoa_r+0xb80>
    4a44:	000a0713          	mv	a4,s4
    4a48:	00ea8a33          	add	s4,s5,a4
    4a4c:	00000993          	li	s3,0
    4a50:	00048593          	mv	a1,s1
    4a54:	00100613          	li	a2,1
    4a58:	00040513          	mv	a0,s0
    4a5c:	b54fe0ef          	jal	2db0 <__lshift>
    4a60:	000b8593          	mv	a1,s7
    4a64:	00050493          	mv	s1,a0
    4a68:	cd8fe0ef          	jal	2f40 <__mcmp>
    4a6c:	4ca05a63          	blez	a0,4f40 <_dtoa_r+0x1078>
    4a70:	03900693          	li	a3,57
    4a74:	0080006f          	j	4a7c <_dtoa_r+0xbb4>
    4a78:	5d4a8063          	beq	s5,s4,5038 <_dtoa_r+0x1170>
    4a7c:	fffa4783          	lbu	a5,-1(s4)
    4a80:	000a0713          	mv	a4,s4
    4a84:	fffa0a13          	add	s4,s4,-1
    4a88:	fed788e3          	beq	a5,a3,4a78 <_dtoa_r+0xbb0>
    4a8c:	00178793          	add	a5,a5,1
    4a90:	00fa0023          	sb	a5,0(s4)
    4a94:	000b8593          	mv	a1,s7
    4a98:	00040513          	mv	a0,s0
    4a9c:	00e12423          	sw	a4,8(sp)
    4aa0:	c15fd0ef          	jal	26b4 <_Bfree>
    4aa4:	00812703          	lw	a4,8(sp)
    4aa8:	02090863          	beqz	s2,4ad8 <_dtoa_r+0xc10>
    4aac:	00098c63          	beqz	s3,4ac4 <_dtoa_r+0xbfc>
    4ab0:	01298a63          	beq	s3,s2,4ac4 <_dtoa_r+0xbfc>
    4ab4:	00098593          	mv	a1,s3
    4ab8:	00040513          	mv	a0,s0
    4abc:	bf9fd0ef          	jal	26b4 <_Bfree>
    4ac0:	00812703          	lw	a4,8(sp)
    4ac4:	00090593          	mv	a1,s2
    4ac8:	00040513          	mv	a0,s0
    4acc:	00e12423          	sw	a4,8(sp)
    4ad0:	be5fd0ef          	jal	26b4 <_Bfree>
    4ad4:	00812703          	lw	a4,8(sp)
    4ad8:	00048593          	mv	a1,s1
    4adc:	00040513          	mv	a0,s0
    4ae0:	00e12423          	sw	a4,8(sp)
    4ae4:	bd1fd0ef          	jal	26b4 <_Bfree>
    4ae8:	00812703          	lw	a4,8(sp)
    4aec:	00412783          	lw	a5,4(sp)
    4af0:	00070023          	sb	zero,0(a4)
    4af4:	0187a023          	sw	s8,0(a5)
    4af8:	00012783          	lw	a5,0(sp)
    4afc:	cc078463          	beqz	a5,3fc4 <_dtoa_r+0xfc>
    4b00:	00e7a023          	sw	a4,0(a5)
    4b04:	cc0ff06f          	j	3fc4 <_dtoa_r+0xfc>
    4b08:	00048593          	mv	a1,s1
    4b0c:	00078613          	mv	a2,a5
    4b10:	00040513          	mv	a0,s0
    4b14:	a9cfe0ef          	jal	2db0 <__lshift>
    4b18:	00050493          	mv	s1,a0
    4b1c:	eadff06f          	j	49c8 <_dtoa_r+0xb00>
    4b20:	000b8593          	mv	a1,s7
    4b24:	00048513          	mv	a0,s1
    4b28:	c18fe0ef          	jal	2f40 <__mcmp>
    4b2c:	ea055ee3          	bgez	a0,49e8 <_dtoa_r+0xb20>
    4b30:	00048593          	mv	a1,s1
    4b34:	00000693          	li	a3,0
    4b38:	00a00613          	li	a2,10
    4b3c:	00040513          	mv	a0,s0
    4b40:	b99fd0ef          	jal	26d8 <__multadd>
    4b44:	01c12783          	lw	a5,28(sp)
    4b48:	00050493          	mv	s1,a0
    4b4c:	fff78a13          	add	s4,a5,-1
    4b50:	02012783          	lw	a5,32(sp)
    4b54:	0c079063          	bnez	a5,4c14 <_dtoa_r+0xd4c>
    4b58:	04012783          	lw	a5,64(sp)
    4b5c:	16f054e3          	blez	a5,54c4 <_dtoa_r+0x15fc>
    4b60:	01c12c03          	lw	s8,28(sp)
    4b64:	00078a13          	mv	s4,a5
    4b68:	e95ff06f          	j	49fc <_dtoa_r+0xb34>
    4b6c:	00100793          	li	a5,1
    4b70:	02f12823          	sw	a5,48(sp)
    4b74:	e00ff06f          	j	4174 <_dtoa_r+0x2ac>
    4b78:	01c00793          	li	a5,28
    4b7c:	e31ff06f          	j	49ac <_dtoa_r+0xae4>
    4b80:	00100713          	li	a4,1
    4b84:	49375663          	bge	a4,s3,5010 <_dtoa_r+0x1148>
    4b88:	02c12783          	lw	a5,44(sp)
    4b8c:	fffa0b93          	add	s7,s4,-1
    4b90:	3d77ce63          	blt	a5,s7,4f6c <_dtoa_r+0x10a4>
    4b94:	41778bb3          	sub	s7,a5,s7
    4b98:	00812783          	lw	a5,8(sp)
    4b9c:	41478cb3          	sub	s9,a5,s4
    4ba0:	3e0a4a63          	bltz	s4,4f94 <_dtoa_r+0x10cc>
    4ba4:	00078c93          	mv	s9,a5
    4ba8:	014787b3          	add	a5,a5,s4
    4bac:	014b0b33          	add	s6,s6,s4
    4bb0:	00f12423          	sw	a5,8(sp)
    4bb4:	3e00006f          	j	4f94 <_dtoa_r+0x10cc>
    4bb8:	40e787b3          	sub	a5,a5,a4
    4bbc:	00fd9533          	sll	a0,s11,a5
    4bc0:	c98ff06f          	j	4058 <_dtoa_r+0x190>
    4bc4:	00300793          	li	a5,3
    4bc8:	00100913          	li	s2,1
    4bcc:	42f98e63          	beq	s3,a5,5008 <_dtoa_r+0x1140>
    4bd0:	df37c863          	blt	a5,s3,41c0 <_dtoa_r+0x2f8>
    4bd4:	00200793          	li	a5,2
    4bd8:	02012023          	sw	zero,32(sp)
    4bdc:	16f996e3          	bne	s3,a5,5548 <_dtoa_r+0x1680>
    4be0:	01012603          	lw	a2,16(sp)
    4be4:	2ec05c63          	blez	a2,4edc <_dtoa_r+0x1014>
    4be8:	04c12023          	sw	a2,64(sp)
    4bec:	00060a13          	mv	s4,a2
    4bf0:	e04ff06f          	j	41f4 <_dtoa_r+0x32c>
    4bf4:	02012823          	sw	zero,48(sp)
    4bf8:	00012423          	sw	zero,8(sp)
    4bfc:	a74044e3          	bgtz	s4,4664 <_dtoa_r+0x79c>
    4c00:	00100793          	li	a5,1
    4c04:	414787b3          	sub	a5,a5,s4
    4c08:	00f12423          	sw	a5,8(sp)
    4c0c:	00000b13          	li	s6,0
    4c10:	a55ff06f          	j	4664 <_dtoa_r+0x79c>
    4c14:	00090593          	mv	a1,s2
    4c18:	00000693          	li	a3,0
    4c1c:	00a00613          	li	a2,10
    4c20:	00040513          	mv	a0,s0
    4c24:	ab5fd0ef          	jal	26d8 <__multadd>
    4c28:	04012783          	lw	a5,64(sp)
    4c2c:	00050913          	mv	s2,a0
    4c30:	0cf052e3          	blez	a5,54f4 <_dtoa_r+0x162c>
    4c34:	01412e23          	sw	s4,28(sp)
    4c38:	00078a13          	mv	s4,a5
    4c3c:	01905c63          	blez	s9,4c54 <_dtoa_r+0xd8c>
    4c40:	00090593          	mv	a1,s2
    4c44:	000c8613          	mv	a2,s9
    4c48:	00040513          	mv	a0,s0
    4c4c:	964fe0ef          	jal	2db0 <__lshift>
    4c50:	00050913          	mv	s2,a0
    4c54:	00090b13          	mv	s6,s2
    4c58:	500c1e63          	bnez	s8,5174 <_dtoa_r+0x12ac>
    4c5c:	02812783          	lw	a5,40(sp)
    4c60:	fffa8d13          	add	s10,s5,-1
    4c64:	000a8c93          	mv	s9,s5
    4c68:	0017f793          	and	a5,a5,1
    4c6c:	014d0d33          	add	s10,s10,s4
    4c70:	00f12823          	sw	a5,16(sp)
    4c74:	01512a23          	sw	s5,20(sp)
    4c78:	01b12c23          	sw	s11,24(sp)
    4c7c:	000b8593          	mv	a1,s7
    4c80:	00048513          	mv	a0,s1
    4c84:	868ff0ef          	jal	3cec <quorem>
    4c88:	00050c13          	mv	s8,a0
    4c8c:	00090593          	mv	a1,s2
    4c90:	00048513          	mv	a0,s1
    4c94:	aacfe0ef          	jal	2f40 <__mcmp>
    4c98:	000b8593          	mv	a1,s7
    4c9c:	00050a13          	mv	s4,a0
    4ca0:	000b0613          	mv	a2,s6
    4ca4:	00040513          	mv	a0,s0
    4ca8:	af0fe0ef          	jal	2f98 <__mdiff>
    4cac:	00c52703          	lw	a4,12(a0)
    4cb0:	00050593          	mv	a1,a0
    4cb4:	030c0a93          	add	s5,s8,48
    4cb8:	08071a63          	bnez	a4,4d4c <_dtoa_r+0xe84>
    4cbc:	00a12423          	sw	a0,8(sp)
    4cc0:	00048513          	mv	a0,s1
    4cc4:	a7cfe0ef          	jal	2f40 <__mcmp>
    4cc8:	00812583          	lw	a1,8(sp)
    4ccc:	00050d93          	mv	s11,a0
    4cd0:	00040513          	mv	a0,s0
    4cd4:	9e1fd0ef          	jal	26b4 <_Bfree>
    4cd8:	01b9e633          	or	a2,s3,s11
    4cdc:	0e061a63          	bnez	a2,4dd0 <_dtoa_r+0xf08>
    4ce0:	01012783          	lw	a5,16(sp)
    4ce4:	76078c63          	beqz	a5,545c <_dtoa_r+0x1594>
    4ce8:	780a4663          	bltz	s4,5474 <_dtoa_r+0x15ac>
    4cec:	015c8023          	sb	s5,0(s9)
    4cf0:	001c8a13          	add	s4,s9,1
    4cf4:	699d0463          	beq	s10,s9,537c <_dtoa_r+0x14b4>
    4cf8:	00048593          	mv	a1,s1
    4cfc:	00000693          	li	a3,0
    4d00:	00a00613          	li	a2,10
    4d04:	00040513          	mv	a0,s0
    4d08:	9d1fd0ef          	jal	26d8 <__multadd>
    4d0c:	00050493          	mv	s1,a0
    4d10:	00090593          	mv	a1,s2
    4d14:	00000693          	li	a3,0
    4d18:	00a00613          	li	a2,10
    4d1c:	00040513          	mv	a0,s0
    4d20:	09690e63          	beq	s2,s6,4dbc <_dtoa_r+0xef4>
    4d24:	9b5fd0ef          	jal	26d8 <__multadd>
    4d28:	000b0593          	mv	a1,s6
    4d2c:	00050913          	mv	s2,a0
    4d30:	00000693          	li	a3,0
    4d34:	00a00613          	li	a2,10
    4d38:	00040513          	mv	a0,s0
    4d3c:	99dfd0ef          	jal	26d8 <__multadd>
    4d40:	00050b13          	mv	s6,a0
    4d44:	000a0c93          	mv	s9,s4
    4d48:	f35ff06f          	j	4c7c <_dtoa_r+0xdb4>
    4d4c:	00040513          	mv	a0,s0
    4d50:	000a8d13          	mv	s10,s5
    4d54:	01812d83          	lw	s11,24(sp)
    4d58:	01412a83          	lw	s5,20(sp)
    4d5c:	959fd0ef          	jal	26b4 <_Bfree>
    4d60:	000a4a63          	bltz	s4,4d74 <_dtoa_r+0xeac>
    4d64:	001df713          	and	a4,s11,1
    4d68:	0149ea33          	or	s4,s3,s4
    4d6c:	01476733          	or	a4,a4,s4
    4d70:	08071063          	bnez	a4,4df0 <_dtoa_r+0xf28>
    4d74:	00048593          	mv	a1,s1
    4d78:	00100613          	li	a2,1
    4d7c:	00040513          	mv	a0,s0
    4d80:	830fe0ef          	jal	2db0 <__lshift>
    4d84:	000b8593          	mv	a1,s7
    4d88:	00050493          	mv	s1,a0
    4d8c:	9b4fe0ef          	jal	2f40 <__mcmp>
    4d90:	24a05463          	blez	a0,4fd8 <_dtoa_r+0x1110>
    4d94:	03900713          	li	a4,57
    4d98:	24ed0863          	beq	s10,a4,4fe8 <_dtoa_r+0x1120>
    4d9c:	031c0d13          	add	s10,s8,49
    4da0:	01c12783          	lw	a5,28(sp)
    4da4:	00090993          	mv	s3,s2
    4da8:	001c8713          	add	a4,s9,1
    4dac:	01ac8023          	sb	s10,0(s9)
    4db0:	00178c13          	add	s8,a5,1
    4db4:	000b0913          	mv	s2,s6
    4db8:	cddff06f          	j	4a94 <_dtoa_r+0xbcc>
    4dbc:	91dfd0ef          	jal	26d8 <__multadd>
    4dc0:	00050913          	mv	s2,a0
    4dc4:	00050b13          	mv	s6,a0
    4dc8:	000a0c93          	mv	s9,s4
    4dcc:	eb1ff06f          	j	4c7c <_dtoa_r+0xdb4>
    4dd0:	7c0a4663          	bltz	s4,559c <_dtoa_r+0x16d4>
    4dd4:	01012783          	lw	a5,16(sp)
    4dd8:	0149ea33          	or	s4,s3,s4
    4ddc:	0147ea33          	or	s4,a5,s4
    4de0:	7a0a0e63          	beqz	s4,559c <_dtoa_r+0x16d4>
    4de4:	f1b054e3          	blez	s11,4cec <_dtoa_r+0xe24>
    4de8:	000a8d13          	mv	s10,s5
    4dec:	01412a83          	lw	s5,20(sp)
    4df0:	03900713          	li	a4,57
    4df4:	1eed0a63          	beq	s10,a4,4fe8 <_dtoa_r+0x1120>
    4df8:	01c12683          	lw	a3,28(sp)
    4dfc:	001d0793          	add	a5,s10,1
    4e00:	00090993          	mv	s3,s2
    4e04:	001c8713          	add	a4,s9,1
    4e08:	00168c13          	add	s8,a3,1 # 3ff00001 <__freertos_irq_stack_top+0x3fed0001>
    4e0c:	00fc8023          	sb	a5,0(s9)
    4e10:	000b0913          	mv	s2,s6
    4e14:	c81ff06f          	j	4a94 <_dtoa_r+0xbcc>
    4e18:	00200793          	li	a5,2
    4e1c:	bd37d8e3          	bge	a5,s3,49ec <_dtoa_r+0xb24>
    4e20:	000a8713          	mv	a4,s5
    4e24:	9a0a1ee3          	bnez	s4,47e0 <_dtoa_r+0x918>
    4e28:	000b8593          	mv	a1,s7
    4e2c:	00000693          	li	a3,0
    4e30:	00500613          	li	a2,5
    4e34:	00040513          	mv	a0,s0
    4e38:	01512423          	sw	s5,8(sp)
    4e3c:	89dfd0ef          	jal	26d8 <__multadd>
    4e40:	00050593          	mv	a1,a0
    4e44:	00050b93          	mv	s7,a0
    4e48:	00048513          	mv	a0,s1
    4e4c:	8f4fe0ef          	jal	2f40 <__mcmp>
    4e50:	00812703          	lw	a4,8(sp)
    4e54:	98a056e3          	blez	a0,47e0 <_dtoa_r+0x918>
    4e58:	03100793          	li	a5,49
    4e5c:	00fa8023          	sb	a5,0(s5)
    4e60:	01c12783          	lw	a5,28(sp)
    4e64:	001a8713          	add	a4,s5,1
    4e68:	00178c13          	add	s8,a5,1
    4e6c:	000b8593          	mv	a1,s7
    4e70:	00040513          	mv	a0,s0
    4e74:	00e12423          	sw	a4,8(sp)
    4e78:	83dfd0ef          	jal	26b4 <_Bfree>
    4e7c:	00812703          	lw	a4,8(sp)
    4e80:	001c0c13          	add	s8,s8,1
    4e84:	c40910e3          	bnez	s2,4ac4 <_dtoa_r+0xbfc>
    4e88:	c51ff06f          	j	4ad8 <_dtoa_r+0xc10>
    4e8c:	00050593          	mv	a1,a0
    4e90:	000c0613          	mv	a2,s8
    4e94:	00040513          	mv	a0,s0
    4e98:	dc9fd0ef          	jal	2c60 <__pow5mult>
    4e9c:	00100793          	li	a5,1
    4ea0:	00050b93          	mv	s7,a0
    4ea4:	1137d263          	bge	a5,s3,4fa8 <_dtoa_r+0x10e0>
    4ea8:	00000c13          	li	s8,0
    4eac:	010ba783          	lw	a5,16(s7)
    4eb0:	00378793          	add	a5,a5,3
    4eb4:	00279793          	sll	a5,a5,0x2
    4eb8:	00fb87b3          	add	a5,s7,a5
    4ebc:	0047a503          	lw	a0,4(a5)
    4ec0:	965fd0ef          	jal	2824 <__hi0bits>
    4ec4:	02000793          	li	a5,32
    4ec8:	40a787b3          	sub	a5,a5,a0
    4ecc:	abdff06f          	j	4988 <_dtoa_r+0xac0>
    4ed0:	00100793          	li	a5,1
    4ed4:	02f12023          	sw	a5,32(sp)
    4ed8:	d09ff06f          	j	4be0 <_dtoa_r+0xd18>
    4edc:	00100793          	li	a5,1
    4ee0:	00100a13          	li	s4,1
    4ee4:	00f12823          	sw	a5,16(sp)
    4ee8:	fa8ff06f          	j	4690 <_dtoa_r+0x7c8>
    4eec:	02812783          	lw	a5,40(sp)
    4ef0:	02079c63          	bnez	a5,4f28 <_dtoa_r+0x1060>
    4ef4:	00cd1793          	sll	a5,s10,0xc
    4ef8:	02079863          	bnez	a5,4f28 <_dtoa_r+0x1060>
    4efc:	7ff007b7          	lui	a5,0x7ff00
    4f00:	00fd77b3          	and	a5,s10,a5
    4f04:	00000713          	li	a4,0
    4f08:	00078c63          	beqz	a5,4f20 <_dtoa_r+0x1058>
    4f0c:	00812783          	lw	a5,8(sp)
    4f10:	001b0b13          	add	s6,s6,1
    4f14:	00100713          	li	a4,1
    4f18:	00178793          	add	a5,a5,1 # 7ff00001 <__freertos_irq_stack_top+0x7fed0001>
    4f1c:	00f12423          	sw	a5,8(sp)
    4f20:	560c1063          	bnez	s8,5480 <_dtoa_r+0x15b8>
    4f24:	00070c13          	mv	s8,a4
    4f28:	00100793          	li	a5,1
    4f2c:	a5dff06f          	j	4988 <_dtoa_r+0xac0>
    4f30:	a8d708e3          	beq	a4,a3,49c0 <_dtoa_r+0xaf8>
    4f34:	03c00713          	li	a4,60
    4f38:	40f707b3          	sub	a5,a4,a5
    4f3c:	a71ff06f          	j	49ac <_dtoa_r+0xae4>
    4f40:	00051663          	bnez	a0,4f4c <_dtoa_r+0x1084>
    4f44:	001d7793          	and	a5,s10,1
    4f48:	b20794e3          	bnez	a5,4a70 <_dtoa_r+0xba8>
    4f4c:	03000693          	li	a3,48
    4f50:	fffa4783          	lbu	a5,-1(s4)
    4f54:	000a0713          	mv	a4,s4
    4f58:	fffa0a13          	add	s4,s4,-1
    4f5c:	fed78ae3          	beq	a5,a3,4f50 <_dtoa_r+0x1088>
    4f60:	b35ff06f          	j	4a94 <_dtoa_r+0xbcc>
    4f64:	000b0793          	mv	a5,s6
    4f68:	9c9ff06f          	j	4930 <_dtoa_r+0xa68>
    4f6c:	02c12783          	lw	a5,44(sp)
    4f70:	00812703          	lw	a4,8(sp)
    4f74:	03712623          	sw	s7,44(sp)
    4f78:	40fb87b3          	sub	a5,s7,a5
    4f7c:	00fc0c33          	add	s8,s8,a5
    4f80:	014707b3          	add	a5,a4,s4
    4f84:	00070c93          	mv	s9,a4
    4f88:	014b0b33          	add	s6,s6,s4
    4f8c:	00f12423          	sw	a5,8(sp)
    4f90:	00000b93          	li	s7,0
    4f94:	00100593          	li	a1,1
    4f98:	00040513          	mv	a0,s0
    4f9c:	9e1fd0ef          	jal	297c <__i2b>
    4fa0:	00050913          	mv	s2,a0
    4fa4:	97dff06f          	j	4920 <_dtoa_r+0xa58>
    4fa8:	02812783          	lw	a5,40(sp)
    4fac:	ee079ee3          	bnez	a5,4ea8 <_dtoa_r+0xfe0>
    4fb0:	00cd1793          	sll	a5,s10,0xc
    4fb4:	ee079ae3          	bnez	a5,4ea8 <_dtoa_r+0xfe0>
    4fb8:	f45ff06f          	j	4efc <_dtoa_r+0x1034>
    4fbc:	01412303          	lw	t1,20(sp)
    4fc0:	01812883          	lw	a7,24(sp)
    4fc4:	00200913          	li	s2,2
    4fc8:	ae8ff06f          	j	42b0 <_dtoa_r+0x3e8>
    4fcc:	00200993          	li	s3,2
    4fd0:	02012023          	sw	zero,32(sp)
    4fd4:	c0dff06f          	j	4be0 <_dtoa_r+0xd18>
    4fd8:	dc0514e3          	bnez	a0,4da0 <_dtoa_r+0xed8>
    4fdc:	001d7713          	and	a4,s10,1
    4fe0:	da071ae3          	bnez	a4,4d94 <_dtoa_r+0xecc>
    4fe4:	dbdff06f          	j	4da0 <_dtoa_r+0xed8>
    4fe8:	03900793          	li	a5,57
    4fec:	00fc8023          	sb	a5,0(s9)
    4ff0:	01c12783          	lw	a5,28(sp)
    4ff4:	00090993          	mv	s3,s2
    4ff8:	001c8a13          	add	s4,s9,1
    4ffc:	00178c13          	add	s8,a5,1
    5000:	000b0913          	mv	s2,s6
    5004:	a6dff06f          	j	4a70 <_dtoa_r+0xba8>
    5008:	02012023          	sw	zero,32(sp)
    500c:	9c8ff06f          	j	41d4 <_dtoa_r+0x30c>
    5010:	03412703          	lw	a4,52(sp)
    5014:	34070063          	beqz	a4,5354 <_dtoa_r+0x148c>
    5018:	00812703          	lw	a4,8(sp)
    501c:	43378793          	add	a5,a5,1075
    5020:	00fb0b33          	add	s6,s6,a5
    5024:	00f707b3          	add	a5,a4,a5
    5028:	02c12b83          	lw	s7,44(sp)
    502c:	00070c93          	mv	s9,a4
    5030:	00f12423          	sw	a5,8(sp)
    5034:	f61ff06f          	j	4f94 <_dtoa_r+0x10cc>
    5038:	03100793          	li	a5,49
    503c:	00fa8023          	sb	a5,0(s5)
    5040:	001c0c13          	add	s8,s8,1
    5044:	a51ff06f          	j	4a94 <_dtoa_r+0xbcc>
    5048:	01c12783          	lw	a5,28(sp)
    504c:	3c078c63          	beqz	a5,5424 <_dtoa_r+0x155c>
    5050:	40f00cb3          	neg	s9,a5
    5054:	00fcf793          	and	a5,s9,15
    5058:	00379793          	sll	a5,a5,0x3
    505c:	0001b917          	auipc	s2,0x1b
    5060:	7dc90913          	add	s2,s2,2012 # 20838 <__mprec_tens>
    5064:	00f907b3          	add	a5,s2,a5
    5068:	0007a603          	lw	a2,0(a5)
    506c:	0047a683          	lw	a3,4(a5)
    5070:	01412503          	lw	a0,20(sp)
    5074:	01812583          	lw	a1,24(sp)
    5078:	404cdc93          	sra	s9,s9,0x4
    507c:	1dc050ef          	jal	a258 <__muldf3>
    5080:	480c8863          	beqz	s9,5510 <_dtoa_r+0x1648>
    5084:	00200913          	li	s2,2
    5088:	000d8713          	mv	a4,s11
    508c:	0001b817          	auipc	a6,0x1b
    5090:	78480813          	add	a6,a6,1924 # 20810 <__mprec_bigtens>
    5094:	02912c23          	sw	s1,56(sp)
    5098:	04812223          	sw	s0,68(sp)
    509c:	00050793          	mv	a5,a0
    50a0:	00090413          	mv	s0,s2
    50a4:	00000693          	li	a3,0
    50a8:	00080493          	mv	s1,a6
    50ac:	00050913          	mv	s2,a0
    50b0:	00058d93          	mv	s11,a1
    50b4:	00070b93          	mv	s7,a4
    50b8:	001cf713          	and	a4,s9,1
    50bc:	02070063          	beqz	a4,50dc <_dtoa_r+0x1214>
    50c0:	0044a683          	lw	a3,4(s1)
    50c4:	0004a603          	lw	a2,0(s1)
    50c8:	00078513          	mv	a0,a5
    50cc:	00140413          	add	s0,s0,1
    50d0:	188050ef          	jal	a258 <__muldf3>
    50d4:	00050793          	mv	a5,a0
    50d8:	00100693          	li	a3,1
    50dc:	401cdc93          	sra	s9,s9,0x1
    50e0:	00848493          	add	s1,s1,8
    50e4:	fc0c9ae3          	bnez	s9,50b8 <_dtoa_r+0x11f0>
    50e8:	000b8713          	mv	a4,s7
    50ec:	00090513          	mv	a0,s2
    50f0:	00058b93          	mv	s7,a1
    50f4:	00040913          	mv	s2,s0
    50f8:	000d8593          	mv	a1,s11
    50fc:	03812483          	lw	s1,56(sp)
    5100:	04412403          	lw	s0,68(sp)
    5104:	00070d93          	mv	s11,a4
    5108:	a2069863          	bnez	a3,4338 <_dtoa_r+0x470>
    510c:	00050793          	mv	a5,a0
    5110:	00058b93          	mv	s7,a1
    5114:	a24ff06f          	j	4338 <_dtoa_r+0x470>
    5118:	00070613          	mv	a2,a4
    511c:	00070513          	mv	a0,a4
    5120:	00068593          	mv	a1,a3
    5124:	225030ef          	jal	8b48 <__adddf3>
    5128:	01c12783          	lw	a5,28(sp)
    512c:	00090613          	mv	a2,s2
    5130:	00098693          	mv	a3,s3
    5134:	00178c13          	add	s8,a5,1
    5138:	00050b13          	mv	s6,a0
    513c:	00058a13          	mv	s4,a1
    5140:	008050ef          	jal	a148 <__gedf2>
    5144:	000c0c93          	mv	s9,s8
    5148:	c6a04663          	bgtz	a0,45b4 <_dtoa_r+0x6ec>
    514c:	000b0513          	mv	a0,s6
    5150:	000a0593          	mv	a1,s4
    5154:	00090613          	mv	a2,s2
    5158:	00098693          	mv	a3,s3
    515c:	729040ef          	jal	a084 <__eqdf2>
    5160:	00051663          	bnez	a0,516c <_dtoa_r+0x12a4>
    5164:	001d7d13          	and	s10,s10,1
    5168:	c40d1663          	bnez	s10,45b4 <_dtoa_r+0x6ec>
    516c:	000b8713          	mv	a4,s7
    5170:	969ff06f          	j	4ad8 <_dtoa_r+0xc10>
    5174:	00492583          	lw	a1,4(s2)
    5178:	00040513          	mv	a0,s0
    517c:	c90fd0ef          	jal	260c <_Balloc>
    5180:	00050b13          	mv	s6,a0
    5184:	3e050e63          	beqz	a0,5580 <_dtoa_r+0x16b8>
    5188:	01092603          	lw	a2,16(s2)
    518c:	00c90593          	add	a1,s2,12
    5190:	00c50513          	add	a0,a0,12
    5194:	00260613          	add	a2,a2,2
    5198:	00261613          	sll	a2,a2,0x2
    519c:	8ccfd0ef          	jal	2268 <memcpy>
    51a0:	000b0593          	mv	a1,s6
    51a4:	00100613          	li	a2,1
    51a8:	00040513          	mv	a0,s0
    51ac:	c05fd0ef          	jal	2db0 <__lshift>
    51b0:	00050b13          	mv	s6,a0
    51b4:	aa9ff06f          	j	4c5c <_dtoa_r+0xd94>
    51b8:	00090593          	mv	a1,s2
    51bc:	000b8613          	mv	a2,s7
    51c0:	00040513          	mv	a0,s0
    51c4:	a9dfd0ef          	jal	2c60 <__pow5mult>
    51c8:	00048613          	mv	a2,s1
    51cc:	00050593          	mv	a1,a0
    51d0:	00050913          	mv	s2,a0
    51d4:	00040513          	mv	a0,s0
    51d8:	855fd0ef          	jal	2a2c <__multiply>
    51dc:	02c12783          	lw	a5,44(sp)
    51e0:	00a12a23          	sw	a0,20(sp)
    51e4:	00048593          	mv	a1,s1
    51e8:	41778bb3          	sub	s7,a5,s7
    51ec:	00040513          	mv	a0,s0
    51f0:	03712623          	sw	s7,44(sp)
    51f4:	cc0fd0ef          	jal	26b4 <_Bfree>
    51f8:	01412783          	lw	a5,20(sp)
    51fc:	00078493          	mv	s1,a5
    5200:	f60b8663          	beqz	s7,496c <_dtoa_r+0xaa4>
    5204:	f54ff06f          	j	4958 <_dtoa_r+0xa90>
    5208:	05012603          	lw	a2,80(sp)
    520c:	05412683          	lw	a3,84(sp)
    5210:	04b12423          	sw	a1,72(sp)
    5214:	00078513          	mv	a0,a5
    5218:	000b8593          	mv	a1,s7
    521c:	03012a23          	sw	a6,52(sp)
    5220:	02e12023          	sw	a4,32(sp)
    5224:	034050ef          	jal	a258 <__muldf3>
    5228:	03412803          	lw	a6,52(sp)
    522c:	04412783          	lw	a5,68(sp)
    5230:	00100693          	li	a3,1
    5234:	010a8023          	sb	a6,0(s5)
    5238:	02a12a23          	sw	a0,52(sp)
    523c:	02b12c23          	sw	a1,56(sp)
    5240:	02012703          	lw	a4,32(sp)
    5244:	04812883          	lw	a7,72(sp)
    5248:	00fa8bb3          	add	s7,s5,a5
    524c:	0001c617          	auipc	a2,0x1c
    5250:	44460613          	add	a2,a2,1092 # 21690 <__malloc_trim_threshold+0x30>
    5254:	2ad78a63          	beq	a5,a3,5508 <_dtoa_r+0x1640>
    5258:	00062783          	lw	a5,0(a2)
    525c:	00462803          	lw	a6,4(a2)
    5260:	04812423          	sw	s0,72(sp)
    5264:	02f12023          	sw	a5,32(sp)
    5268:	03012223          	sw	a6,36(sp)
    526c:	04912223          	sw	s1,68(sp)
    5270:	00070413          	mv	s0,a4
    5274:	05212623          	sw	s2,76(sp)
    5278:	000c8513          	mv	a0,s9
    527c:	00088593          	mv	a1,a7
    5280:	02012603          	lw	a2,32(sp)
    5284:	02412683          	lw	a3,36(sp)
    5288:	00140413          	add	s0,s0,1
    528c:	7cd040ef          	jal	a258 <__muldf3>
    5290:	00058493          	mv	s1,a1
    5294:	00050913          	mv	s2,a0
    5298:	43c060ef          	jal	b6d4 <__fixdfsi>
    529c:	00050c93          	mv	s9,a0
    52a0:	534060ef          	jal	b7d4 <__floatsidf>
    52a4:	00050613          	mv	a2,a0
    52a8:	00058693          	mv	a3,a1
    52ac:	00090513          	mv	a0,s2
    52b0:	00048593          	mv	a1,s1
    52b4:	030c8c93          	add	s9,s9,48
    52b8:	760050ef          	jal	aa18 <__subdf3>
    52bc:	ff940fa3          	sb	s9,-1(s0)
    52c0:	fd7410e3          	bne	s0,s7,5280 <_dtoa_r+0x13b8>
    52c4:	04412483          	lw	s1,68(sp)
    52c8:	04812403          	lw	s0,72(sp)
    52cc:	04c12903          	lw	s2,76(sp)
    52d0:	00050c93          	mv	s9,a0
    52d4:	00058893          	mv	a7,a1
    52d8:	0001c797          	auipc	a5,0x1c
    52dc:	3d078793          	add	a5,a5,976 # 216a8 <__malloc_trim_threshold+0x48>
    52e0:	0007a603          	lw	a2,0(a5)
    52e4:	0047a683          	lw	a3,4(a5)
    52e8:	03412503          	lw	a0,52(sp)
    52ec:	03812583          	lw	a1,56(sp)
    52f0:	03112023          	sw	a7,32(sp)
    52f4:	055030ef          	jal	8b48 <__adddf3>
    52f8:	02012883          	lw	a7,32(sp)
    52fc:	000c8613          	mv	a2,s9
    5300:	00088693          	mv	a3,a7
    5304:	b3cfc0ef          	jal	1640 <__ledf2>
    5308:	18054063          	bltz	a0,5488 <_dtoa_r+0x15c0>
    530c:	0001c797          	auipc	a5,0x1c
    5310:	39c78793          	add	a5,a5,924 # 216a8 <__malloc_trim_threshold+0x48>
    5314:	03412603          	lw	a2,52(sp)
    5318:	03812683          	lw	a3,56(sp)
    531c:	0007a503          	lw	a0,0(a5)
    5320:	0047a583          	lw	a1,4(a5)
    5324:	6f4050ef          	jal	aa18 <__subdf3>
    5328:	02012883          	lw	a7,32(sp)
    532c:	000c8613          	mv	a2,s9
    5330:	00088693          	mv	a3,a7
    5334:	615040ef          	jal	a148 <__gedf2>
    5338:	16a04a63          	bgtz	a0,54ac <_dtoa_r+0x15e4>
    533c:	06c12783          	lw	a5,108(sp)
    5340:	dc07c863          	bltz	a5,4910 <_dtoa_r+0xa48>
    5344:	01c12703          	lw	a4,28(sp)
    5348:	00e00793          	li	a5,14
    534c:	dce7c263          	blt	a5,a4,4910 <_dtoa_r+0xa48>
    5350:	c2cff06f          	j	477c <_dtoa_r+0x8b4>
    5354:	06812703          	lw	a4,104(sp)
    5358:	00812683          	lw	a3,8(sp)
    535c:	03600793          	li	a5,54
    5360:	40e787b3          	sub	a5,a5,a4
    5364:	00fb0b33          	add	s6,s6,a5
    5368:	00f687b3          	add	a5,a3,a5
    536c:	02c12b83          	lw	s7,44(sp)
    5370:	00068c93          	mv	s9,a3
    5374:	00f12423          	sw	a5,8(sp)
    5378:	c1dff06f          	j	4f94 <_dtoa_r+0x10cc>
    537c:	01c12783          	lw	a5,28(sp)
    5380:	000a8d13          	mv	s10,s5
    5384:	00090993          	mv	s3,s2
    5388:	01412a83          	lw	s5,20(sp)
    538c:	00178c13          	add	s8,a5,1
    5390:	000b0913          	mv	s2,s6
    5394:	ebcff06f          	j	4a50 <_dtoa_r+0xb88>
    5398:	b20a0263          	beqz	s4,46bc <_dtoa_r+0x7f4>
    539c:	04012c83          	lw	s9,64(sp)
    53a0:	bd905063          	blez	s9,4760 <_dtoa_r+0x898>
    53a4:	0001c617          	auipc	a2,0x1c
    53a8:	2ec60613          	add	a2,a2,748 # 21690 <__malloc_trim_threshold+0x30>
    53ac:	00462683          	lw	a3,4(a2)
    53b0:	00062603          	lw	a2,0(a2)
    53b4:	00078513          	mv	a0,a5
    53b8:	000b8593          	mv	a1,s7
    53bc:	69d040ef          	jal	a258 <__muldf3>
    53c0:	00050793          	mv	a5,a0
    53c4:	00190513          	add	a0,s2,1
    53c8:	02f12c23          	sw	a5,56(sp)
    53cc:	00058b93          	mv	s7,a1
    53d0:	404060ef          	jal	b7d4 <__floatsidf>
    53d4:	03812783          	lw	a5,56(sp)
    53d8:	000b8693          	mv	a3,s7
    53dc:	00078613          	mv	a2,a5
    53e0:	04f12423          	sw	a5,72(sp)
    53e4:	675040ef          	jal	a258 <__muldf3>
    53e8:	0001c717          	auipc	a4,0x1c
    53ec:	2b070713          	add	a4,a4,688 # 21698 <__malloc_trim_threshold+0x38>
    53f0:	01c12783          	lw	a5,28(sp)
    53f4:	00072603          	lw	a2,0(a4)
    53f8:	00472683          	lw	a3,4(a4)
    53fc:	fff78793          	add	a5,a5,-1
    5400:	04f12c23          	sw	a5,88(sp)
    5404:	05912223          	sw	s9,68(sp)
    5408:	740030ef          	jal	8b48 <__adddf3>
    540c:	fcc00737          	lui	a4,0xfcc00
    5410:	00b707b3          	add	a5,a4,a1
    5414:	02f12c23          	sw	a5,56(sp)
    5418:	00050c93          	mv	s9,a0
    541c:	04812783          	lw	a5,72(sp)
    5420:	fa5fe06f          	j	43c4 <_dtoa_r+0x4fc>
    5424:	01412783          	lw	a5,20(sp)
    5428:	01812b83          	lw	s7,24(sp)
    542c:	00200913          	li	s2,2
    5430:	f09fe06f          	j	4338 <_dtoa_r+0x470>
    5434:	03100693          	li	a3,49
    5438:	001c8c93          	add	s9,s9,1
    543c:	99cff06f          	j	45d8 <_dtoa_r+0x710>
    5440:	00000b93          	li	s7,0
    5444:	00000913          	li	s2,0
    5448:	a11ff06f          	j	4e58 <_dtoa_r+0xf90>
    544c:	000b0713          	mv	a4,s6
    5450:	05812783          	lw	a5,88(sp)
    5454:	00178c13          	add	s8,a5,1
    5458:	e80ff06f          	j	4ad8 <_dtoa_r+0xc10>
    545c:	000a8d13          	mv	s10,s5
    5460:	03900713          	li	a4,57
    5464:	01412a83          	lw	s5,20(sp)
    5468:	b8ed00e3          	beq	s10,a4,4fe8 <_dtoa_r+0x1120>
    546c:	934048e3          	bgtz	s4,4d9c <_dtoa_r+0xed4>
    5470:	931ff06f          	j	4da0 <_dtoa_r+0xed8>
    5474:	000a8d13          	mv	s10,s5
    5478:	01412a83          	lw	s5,20(sp)
    547c:	925ff06f          	j	4da0 <_dtoa_r+0xed8>
    5480:	00070c13          	mv	s8,a4
    5484:	a29ff06f          	j	4eac <_dtoa_r+0xfe4>
    5488:	05812783          	lw	a5,88(sp)
    548c:	00178c93          	add	s9,a5,1
    5490:	924ff06f          	j	45b4 <_dtoa_r+0x6ec>
    5494:	04812c03          	lw	s8,72(sp)
    5498:	04c12b03          	lw	s6,76(sp)
    549c:	05012a03          	lw	s4,80(sp)
    54a0:	04412983          	lw	s3,68(sp)
    54a4:	05c12d03          	lw	s10,92(sp)
    54a8:	ab8ff06f          	j	4760 <_dtoa_r+0x898>
    54ac:	03000613          	li	a2,48
    54b0:	fffbc783          	lbu	a5,-1(s7)
    54b4:	000b8713          	mv	a4,s7
    54b8:	fffb8b93          	add	s7,s7,-1
    54bc:	fec78ae3          	beq	a5,a2,54b0 <_dtoa_r+0x15e8>
    54c0:	f91ff06f          	j	5450 <_dtoa_r+0x1588>
    54c4:	00200793          	li	a5,2
    54c8:	0337c063          	blt	a5,s3,54e8 <_dtoa_r+0x1620>
    54cc:	000b8593          	mv	a1,s7
    54d0:	81dfe0ef          	jal	3cec <quorem>
    54d4:	03050d13          	add	s10,a0,48
    54d8:	01c12c03          	lw	s8,28(sp)
    54dc:	04012a03          	lw	s4,64(sp)
    54e0:	01aa8023          	sb	s10,0(s5)
    54e4:	d58ff06f          	j	4a3c <_dtoa_r+0xb74>
    54e8:	01412e23          	sw	s4,28(sp)
    54ec:	04012a03          	lw	s4,64(sp)
    54f0:	931ff06f          	j	4e20 <_dtoa_r+0xf58>
    54f4:	00200793          	li	a5,2
    54f8:	ff37c8e3          	blt	a5,s3,54e8 <_dtoa_r+0x1620>
    54fc:	01412e23          	sw	s4,28(sp)
    5500:	04012a03          	lw	s4,64(sp)
    5504:	f38ff06f          	j	4c3c <_dtoa_r+0xd74>
    5508:	00070b93          	mv	s7,a4
    550c:	dcdff06f          	j	52d8 <_dtoa_r+0x1410>
    5510:	00050793          	mv	a5,a0
    5514:	00058b93          	mv	s7,a1
    5518:	00200913          	li	s2,2
    551c:	e1dfe06f          	j	4338 <_dtoa_r+0x470>
    5520:	0001b697          	auipc	a3,0x1b
    5524:	27c68693          	add	a3,a3,636 # 2079c <__clz_tab+0x100>
    5528:	00000613          	li	a2,0
    552c:	1aa00593          	li	a1,426
    5530:	0001b517          	auipc	a0,0x1b
    5534:	42450513          	add	a0,a0,1060 # 20954 <__mprec_tens+0x11c>
    5538:	e74fe0ef          	jal	3bac <__assert_func>
    553c:	04042223          	sw	zero,68(s0)
    5540:	00000593          	li	a1,0
    5544:	cddfe06f          	j	4220 <_dtoa_r+0x358>
    5548:	04042223          	sw	zero,68(s0)
    554c:	00000593          	li	a1,0
    5550:	00040513          	mv	a0,s0
    5554:	8b8fd0ef          	jal	260c <_Balloc>
    5558:	00050a93          	mv	s5,a0
    555c:	fc0502e3          	beqz	a0,5520 <_dtoa_r+0x1658>
    5560:	00100793          	li	a5,1
    5564:	02f12023          	sw	a5,32(sp)
    5568:	fff00793          	li	a5,-1
    556c:	04a42023          	sw	a0,64(s0)
    5570:	04f12023          	sw	a5,64(sp)
    5574:	00012823          	sw	zero,16(sp)
    5578:	fff00a13          	li	s4,-1
    557c:	9e4ff06f          	j	4760 <_dtoa_r+0x898>
    5580:	0001b697          	auipc	a3,0x1b
    5584:	21c68693          	add	a3,a3,540 # 2079c <__clz_tab+0x100>
    5588:	00000613          	li	a2,0
    558c:	2ea00593          	li	a1,746
    5590:	0001b517          	auipc	a0,0x1b
    5594:	3c450513          	add	a0,a0,964 # 20954 <__mprec_tens+0x11c>
    5598:	e14fe0ef          	jal	3bac <__assert_func>
    559c:	000a8d13          	mv	s10,s5
    55a0:	01412a83          	lw	s5,20(sp)
    55a4:	ffb05e63          	blez	s11,4da0 <_dtoa_r+0xed8>
    55a8:	fccff06f          	j	4d74 <_dtoa_r+0xeac>

000055ac <__errno>:
    55ac:	0001c517          	auipc	a0,0x1c
    55b0:	0ac52503          	lw	a0,172(a0) # 21658 <_impure_ptr>
    55b4:	00008067          	ret

000055b8 <fiprintf>:
    55b8:	fc010113          	add	sp,sp,-64
    55bc:	02810313          	add	t1,sp,40
    55c0:	02c12423          	sw	a2,40(sp)
    55c4:	02d12623          	sw	a3,44(sp)
    55c8:	00058613          	mv	a2,a1
    55cc:	00030693          	mv	a3,t1
    55d0:	00050593          	mv	a1,a0
    55d4:	0001c517          	auipc	a0,0x1c
    55d8:	08452503          	lw	a0,132(a0) # 21658 <_impure_ptr>
    55dc:	00112e23          	sw	ra,28(sp)
    55e0:	02e12823          	sw	a4,48(sp)
    55e4:	02f12a23          	sw	a5,52(sp)
    55e8:	03012c23          	sw	a6,56(sp)
    55ec:	03112e23          	sw	a7,60(sp)
    55f0:	00612623          	sw	t1,12(sp)
    55f4:	5a4000ef          	jal	5b98 <_vfiprintf_r>
    55f8:	01c12083          	lw	ra,28(sp)
    55fc:	04010113          	add	sp,sp,64
    5600:	00008067          	ret

00005604 <_malloc_trim_r>:
    5604:	fe010113          	add	sp,sp,-32
    5608:	00812c23          	sw	s0,24(sp)
    560c:	00912a23          	sw	s1,20(sp)
    5610:	01212823          	sw	s2,16(sp)
    5614:	01312623          	sw	s3,12(sp)
    5618:	01412423          	sw	s4,8(sp)
    561c:	00058993          	mv	s3,a1
    5620:	00112e23          	sw	ra,28(sp)
    5624:	0001ca17          	auipc	s4,0x1c
    5628:	abca0a13          	add	s4,s4,-1348 # 210e0 <__malloc_av_>
    562c:	00050913          	mv	s2,a0
    5630:	fd5fc0ef          	jal	2604 <__malloc_lock>
    5634:	008a2703          	lw	a4,8(s4)
    5638:	000017b7          	lui	a5,0x1
    563c:	fef78413          	add	s0,a5,-17 # fef <ee_printf+0x67f>
    5640:	00472483          	lw	s1,4(a4) # fcc00004 <__freertos_irq_stack_top+0xfcbd0004>
    5644:	ffc4f493          	and	s1,s1,-4
    5648:	00848433          	add	s0,s1,s0
    564c:	41340433          	sub	s0,s0,s3
    5650:	00c45413          	srl	s0,s0,0xc
    5654:	fff40413          	add	s0,s0,-1
    5658:	00c41413          	sll	s0,s0,0xc
    565c:	00f44e63          	blt	s0,a5,5678 <_malloc_trim_r+0x74>
    5660:	00000593          	li	a1,0
    5664:	00090513          	mv	a0,s2
    5668:	a30fe0ef          	jal	3898 <_sbrk_r>
    566c:	008a2783          	lw	a5,8(s4)
    5670:	009787b3          	add	a5,a5,s1
    5674:	02f50863          	beq	a0,a5,56a4 <_malloc_trim_r+0xa0>
    5678:	00090513          	mv	a0,s2
